(lp1
(lp2
F-0.033509403467178345
aF-1.1572939157485962
aF1.0828992128372192
aF0.93143314123153687
aa(lp3
F-0.52939414978027344
aF-0.40155875682830811
aF0.30389928817749023
aF-0.58338236808776855
aa(lp4
F0.18959498405456543
aF-0.56440567970275879
aF0.33902132511138916
aF2.0691139698028564
aa(lp5
F-0.059536844491958618
aF-0.92938888072967529
aF0.26350980997085571
aF1.1701583862304688
aa.