(lp1
F-12637.2099609375
aF-12637.2099609375
aF-12637.2099609375
aF-12637.2099609375
aF-12637.2099609375
aF-12637.2099609375
aF-12637.2099609375
aF-12637.2099609375
aF-12637.2099609375
aF-12637.2099609375
aF-12637.2099609375
aF-12637.2099609375
aF-12637.2099609375
aF-12637.2099609375
aF-12637.2099609375
aF-12637.2099609375
aF-12637.2099609375
aF-12637.2099609375
aF-12637.2099609375
aF-12637.2099609375
aF-12637.2099609375
aF-12637.2099609375
aF-12637.2099609375
aF-12637.2099609375
aF-12637.2099609375
aF-12637.2099609375
aF-12637.2099609375
aF-12637.2099609375
aF-12637.2099609375
aF-12637.2099609375
aF-12637.2099609375
aF-12637.2099609375
aF-12637.2099609375
aF-12637.2099609375
aF-12637.2099609375
aF-12637.2099609375
aF-12637.2099609375
aF-12637.2099609375
aF-12637.2099609375
aF-12637.2099609375
aF-12637.2099609375
aF-12637.2099609375
aF-12637.2099609375
aF-12637.2099609375
aF-12637.2099609375
aF-12637.2099609375
aF-12637.2099609375
aF-12637.2099609375
aF-12637.2099609375
aF-12637.2099609375
aF-12637.2099609375
aF-12637.2099609375
aF-12637.2099609375
aF-12637.2099609375
aF-12637.2099609375
aF-12637.2099609375
aF-12637.2099609375
aF-12637.2099609375
aF-12637.2099609375
aF-12637.2099609375
aF-12637.2099609375
aF-12637.2099609375
aF-12637.2099609375
aF-12637.2099609375
aF-12637.2099609375
aF-12637.2099609375
aF-12637.2099609375
aF-12637.2099609375
aF-12637.2099609375
aF-12637.2099609375
aF-12637.2099609375
aF-12637.2099609375
aF-12637.2099609375
aF-12637.2099609375
aF-12637.2099609375
aF-12637.2099609375
aF-12637.2099609375
aF-12637.2099609375
aF-12637.2099609375
aF-12637.2099609375
aF-12637.2099609375
aF-12637.2099609375
aF-12637.2099609375
aF-12637.2099609375
aF-12637.2099609375
aF-12637.2099609375
aF-12637.2099609375
aF-12637.2099609375
aF-12637.2099609375
aF-12637.2099609375
aF-12637.2099609375
aF-12637.2099609375
aF-12637.2099609375
aF-12637.2099609375
aF-12637.2099609375
aF-12637.2099609375
aF-12637.2099609375
aF-12637.2099609375
aF-12637.2099609375
aF-12637.2099609375
aF-12637.2099609375
aF-12637.2099609375
aF-12637.2099609375
aF-12637.2099609375
aF-12637.2099609375
aF-12637.2099609375
aF-12637.2099609375
aF-12637.2099609375
aF-12637.2099609375
aF-12637.2099609375
aF-12637.2099609375
aF-12637.2099609375
aF-12637.2099609375
aF-12637.2099609375
aF-12637.2099609375
aF-12637.2099609375
aF-12637.2099609375
aF-12637.2099609375
aF-12637.2099609375
aF-12637.2099609375
aF-12637.2099609375
aF-12637.2099609375
aF-12637.2099609375
aF-12637.2099609375
aF-12637.2099609375
aF-12637.2099609375
aF-12637.2099609375
aF-12637.2099609375
aF-12637.2099609375
aF-12637.2099609375
aF-12637.2099609375
aF-12637.2099609375
aF-12637.2099609375
aF-12637.2099609375
aF-12637.2099609375
aF-12637.2099609375
aF-12637.2099609375
aF-12637.2099609375
aF-12637.2099609375
aF-12637.2099609375
aF-12637.2099609375
aF-12637.2099609375
aF-12637.2099609375
aF-12637.2099609375
aF-12637.2099609375
aF-12637.2099609375
aF-12637.2099609375
aF-12637.2099609375
aF-12637.2099609375
aF-12637.2099609375
aF-12637.2099609375
aF-12637.2099609375
aF-12637.2099609375
aF-12637.2099609375
aF-12637.2099609375
aF-12637.2099609375
aF-12637.2099609375
aF-12637.2099609375
aF-12637.2099609375
aF-12637.2099609375
aF-12637.2099609375
aF-12637.2099609375
aF-12637.2099609375
aF-12637.2099609375
aF-12637.2099609375
aF-12637.2099609375
aF-12637.2099609375
aF-12637.2099609375
aF-12637.2099609375
aF-12637.2099609375
aF-12637.2099609375
aF-12637.2099609375
aF-12637.2099609375
aF-12637.2099609375
aF-12637.2099609375
aF-12637.2099609375
aF-12637.2099609375
aF-12637.2099609375
aF-12637.2099609375
aF-12637.2099609375
aF-12637.2099609375
aF-12637.2099609375
aF-12637.2099609375
aF-12637.2099609375
aF-12637.2099609375
aF-12637.2099609375
aF-12637.2099609375
aF-12637.2099609375
aF-12637.2099609375
aF-12637.2099609375
aF-12637.2099609375
aF-12637.2099609375
aF-12637.2099609375
aF-12637.2099609375
aF-12637.2099609375
aF-12637.2099609375
aF-12637.2099609375
aF-12637.2099609375
aF-12637.2099609375
aF-12637.2099609375
aF-12637.2099609375
aF-12637.2099609375
aF-12637.2099609375
aF-12637.2099609375
aF-12637.2099609375
aF-12637.2099609375
aF-12637.2099609375
aF-12637.2099609375
aF-12637.2099609375
aF-12637.2099609375
aF-12637.2099609375
aF-12637.2099609375
aF-12637.2099609375
aF-12637.2099609375
aF-12637.2099609375
aF-12637.2099609375
aF-12637.2099609375
aF-12637.2099609375
aF-12637.2099609375
aF-12637.2099609375
aF-12637.2099609375
aF-12637.2099609375
aF-12637.2099609375
aF-12637.2099609375
aF-12637.2099609375
aF-12637.2099609375
aF-12637.2099609375
aF-12637.2099609375
aF-12637.2099609375
aF-12637.2099609375
aF-12637.2099609375
aF-12637.2099609375
aF-12637.2099609375
aF-12637.2099609375
aF-12637.2099609375
aF-12637.2099609375
aF-12637.2099609375
aF-12637.2099609375
aF-12637.2099609375
aF-12637.2099609375
aF-12637.2099609375
aF-12637.2099609375
aF-12637.2099609375
aF-12637.2099609375
aF-12637.2099609375
aF-12637.2099609375
aF-12637.2099609375
aF-12637.2099609375
aF-12637.2099609375
aF-12637.2099609375
aF-12637.2099609375
aF-12637.2099609375
aF-12637.2099609375
aF-12637.2099609375
aF-12637.2099609375
aF-12637.2099609375
aF-12637.2099609375
aF-12637.2099609375
aF-12637.2099609375
aF-12637.2099609375
aF-12637.2099609375
aF-12637.2099609375
aF-12637.2099609375
aF-12637.2099609375
aF-12637.2099609375
aF-12637.2099609375
aF-12637.2099609375
aF-12637.2099609375
aF-12637.2099609375
aF-12637.2099609375
aF-12637.2099609375
aF-12637.2099609375
aF-12637.2099609375
aF-12637.2099609375
aF-12637.2099609375
aF-12637.2099609375
aF-12637.2099609375
aF-12637.2099609375
aF-12637.2099609375
aF-12637.2099609375
aF-12637.2099609375
aF-12637.2099609375
aF-12637.2099609375
aF-12637.2099609375
aF-12637.2099609375
aF-12637.2099609375
aF-12637.2099609375
aF-12637.2099609375
aF-12637.2099609375
aF-12637.2099609375
aF-12637.2099609375
aF-12637.2099609375
aF-12637.2099609375
aF-12637.2099609375
aF-12637.2099609375
aF-12637.2099609375
aF-12637.2099609375
aF-12637.2099609375
aF-12637.2099609375
aF-12637.2099609375
aF-12637.2099609375
aF-12637.2099609375
aF-12637.2099609375
aF-12637.2099609375
aF-12637.2099609375
aF-12637.2099609375
aF-12637.2099609375
aF-12637.2099609375
aF-12637.2099609375
aF-12637.2099609375
aF-12637.2099609375
aF-12637.2099609375
aF-12637.2099609375
aF-12637.2099609375
aF-12637.2099609375
aF-12637.2099609375
aF-12637.2099609375
aF-12637.2099609375
aF-12637.2099609375
aF-12637.2099609375
aF-12637.2099609375
aF-12637.2099609375
aF-12637.2099609375
aF-12637.2099609375
aF-12637.2099609375
aF-12637.2099609375
aF-12637.2099609375
aF-12637.2099609375
aF-12637.2099609375
aF-12637.2099609375
aF-12637.2099609375
aF-12637.2099609375
aF-12637.2099609375
aF-12637.2099609375
aF-12637.2099609375
aF-12637.2099609375
aF-12637.2099609375
aF-12637.2099609375
aF-12637.2099609375
aF-12637.2099609375
aF-12637.2099609375
aF-12637.2099609375
aF-12637.2099609375
aF-12637.2099609375
aF-12637.2099609375
aF-12637.2099609375
aF-12637.2099609375
aF-12637.2099609375
aF-12637.2099609375
aF-12637.2099609375
aF-12637.2099609375
aF-12637.2099609375
aF-12637.2099609375
aF-12637.2099609375
aF-12637.2099609375
aF-12637.2099609375
aF-12637.2099609375
aF-12637.2099609375
aF-12637.2099609375
aF-12637.2099609375
aF-12637.2099609375
aF-12637.2099609375
aF-12637.2099609375
aF-12637.2099609375
aF-12637.2099609375
aF-12637.2099609375
aF-12637.2099609375
aF-12637.2099609375
aF-12637.2099609375
aF-12637.2099609375
aF-12637.2099609375
aF-12637.2099609375
aF-12637.2099609375
aF-12637.2099609375
aF-12637.2099609375
aF-12637.2099609375
aF-12637.2099609375
aF-12637.2099609375
aF-12637.2099609375
aF-12637.2099609375
aF-12637.2099609375
aF-12637.2099609375
aF-12637.2099609375
aF-12637.2099609375
aF-12637.2099609375
aF-12637.2099609375
aF-12637.2099609375
aF-12637.2099609375
aF-12637.2099609375
aF-12637.2099609375
aF-12637.2099609375
aF-12637.2099609375
aF-12637.2099609375
aF-12637.2099609375
aF-12637.2099609375
aF-12637.2099609375
aF-12637.2099609375
aF-12637.2099609375
aF-12637.2099609375
aF-12637.2099609375
aF-12637.2099609375
aF-12637.2099609375
aF-12637.2099609375
aF-12637.2099609375
aF-12637.2099609375
aF-12637.2099609375
aF-12637.2099609375
aF-12637.2099609375
aF-12637.2099609375
aF-12637.2099609375
aF-12637.2099609375
aF-12637.2099609375
aF-12637.2099609375
aF-12637.2099609375
aF-12637.2099609375
aF-12637.2099609375
aF-12637.2099609375
aF-12637.2099609375
aF-12637.2099609375
aF-12637.2099609375
aF-12637.2099609375
aF-12637.2099609375
aF-12637.2099609375
aF-12637.2099609375
aF-12637.2099609375
aF-12637.2099609375
aF-12637.2099609375
aF-12637.2099609375
aF-12637.2099609375
aF-12637.2099609375
aF-12637.2099609375
aF-12637.2099609375
aF-12637.2099609375
aF-12637.2099609375
aF-12637.2099609375
aF-12637.2099609375
aF-12637.2099609375
aF-12637.2099609375
aF-12637.2099609375
aF-12637.2099609375
aF-12637.2099609375
aF-12637.2099609375
aF-12637.2099609375
aF-12637.2099609375
aF-12637.2099609375
aF-12637.2099609375
aF-12637.2099609375
aF-12637.2099609375
aF-12637.2099609375
aF-12637.2099609375
aF-12637.2099609375
aF-12637.2099609375
aF-12637.2099609375
aF-12637.2099609375
aF-12637.2099609375
aF-12637.2099609375
aF-12637.2099609375
aF-12637.2099609375
aF-12637.2099609375
aF-12637.2099609375
aF-12637.2099609375
aF-12637.2099609375
aF-12637.2099609375
aF-12637.2099609375
aF-12637.2099609375
aF-12637.2099609375
aF-12637.2099609375
aF-12637.2099609375
aF-12637.2099609375
aF-12637.2099609375
aF-12637.2099609375
aF-12637.2099609375
aF-12637.2099609375
aF-12637.2099609375
aF-12637.2099609375
aF-12637.2099609375
aF-12637.2099609375
aF-12637.2099609375
aF-12637.2099609375
aF-12637.2099609375
aF-12637.2099609375
aF-12637.2099609375
aF-12637.2099609375
aF-12637.2099609375
aF-12637.2099609375
aF-12637.2099609375
aF-12637.2099609375
aF-12637.2099609375
aF-12637.2099609375
aF-12637.2099609375
aF-12637.2099609375
aF-12637.2099609375
aF-12637.2099609375
aF-12637.2099609375
aF-12637.2099609375
aF-12637.2099609375
aF-12637.2099609375
aF-12637.2099609375
aF-12637.2099609375
aF-12637.2099609375
aF-12637.2099609375
aF-12637.2099609375
aF-12637.2099609375
aF-12637.2099609375
aF-12637.2099609375
aF-12637.2099609375
aF-12637.2099609375
aF-12637.2099609375
aF-12637.2099609375
aF-12637.2099609375
aF-12637.2099609375
aF-12637.2099609375
aF-12637.2099609375
aF-12637.2099609375
aF-12637.2099609375
aF-12637.2099609375
aF-12637.2099609375
aF-12637.2099609375
aF-12637.2099609375
aF-12637.2099609375
aF-12637.2099609375
aF-12637.2099609375
aF-12637.2099609375
aF-12637.2099609375
aF-12637.2099609375
aF-12637.2099609375
aF-12637.2099609375
aF-12637.2099609375
aF-12637.2099609375
aF-12637.2099609375
aF-12637.2099609375
aF-12637.2099609375
aF-12637.2099609375
aF-12637.2099609375
aF-12637.2099609375
aF-12637.2099609375
aF-12637.2099609375
aF-12637.2099609375
aF-12637.2099609375
aF-12637.2099609375
aF-12637.2099609375
aF-12637.2099609375
aF-12637.2099609375
aF-12637.2099609375
aF-12637.2099609375
aF-12637.2099609375
aF-12637.2099609375
aF-12637.2099609375
aF-12637.2099609375
aF-12637.2099609375
aF-12637.2099609375
aF-12637.2099609375
aF-12637.2099609375
aF-12637.2099609375
aF-12637.2099609375
aF-12637.2099609375
aF-12637.2099609375
aF-12637.2099609375
aF-12637.2099609375
aF-12637.2099609375
aF-12637.2099609375
aF-12637.2099609375
aF-12637.2099609375
aF-12637.2099609375
aF-12637.2099609375
aF-12637.2099609375
aF-12637.2099609375
aF-12637.2099609375
aF-12637.2099609375
aF-12637.2099609375
aF-12637.2099609375
aF-12637.2099609375
aF-12637.2099609375
aF-12637.2099609375
aF-12637.2099609375
aF-12637.2099609375
aF-12637.2099609375
aF-12637.2099609375
aF-12637.2099609375
aF-12637.2099609375
aF-12637.2099609375
aF-12637.2099609375
aF-12637.2099609375
aF-12637.2099609375
aF-12637.2099609375
aF-12637.2099609375
aF-12637.2099609375
aF-12637.2099609375
aF-12637.2099609375
aF-12637.2099609375
aF-12637.2099609375
aF-12637.2099609375
aF-12637.2099609375
aF-12637.2099609375
aF-12637.2099609375
aF-12637.2099609375
aF-12637.2099609375
aF-12637.2099609375
aF-12637.2099609375
aF-12637.2099609375
aF-12637.2099609375
aF-12637.2099609375
aF-12637.2099609375
aF-12637.2099609375
aF-12637.2099609375
aF-12637.2099609375
aF-12637.2099609375
aF-12637.2099609375
aF-12637.2099609375
aF-12637.2099609375
aF-12637.2099609375
aF-12637.2099609375
aF-12637.2099609375
aF-12637.2099609375
aF-12637.2099609375
aF-12637.2099609375
aF-12637.2099609375
aF-12637.2099609375
aF-12637.2099609375
aF-12637.2099609375
aF-12637.2099609375
aF-12637.2099609375
aF-12637.2099609375
aF-12637.2099609375
aF-12637.2099609375
aF-12637.2099609375
aF-12637.2099609375
aF-12637.2099609375
aF-12637.2099609375
aF-12637.2099609375
aF-12637.2099609375
aF-12637.2099609375
aF-12637.2099609375
aF-12637.2099609375
aF-12637.2099609375
aF-12637.2099609375
aF-12637.2099609375
aF-12637.2099609375
aF-12637.2099609375
aF-12637.2099609375
aF-12637.2099609375
aF-12637.2099609375
aF-12637.2099609375
aF-12637.2099609375
aF-12637.2099609375
aF-12637.2099609375
aF-12637.2099609375
aF-12637.2099609375
aF-12637.2099609375
aF-12637.2099609375
aF-12637.2099609375
aF-12637.2099609375
aF-12637.2099609375
aF-12637.2099609375
aF-12637.2099609375
aF-12637.2099609375
aF-12637.2099609375
aF-12637.2099609375
aF-12637.2099609375
aF-12637.2099609375
aF-12637.2099609375
aF-12637.2099609375
aF-12637.2099609375
aF-12637.2099609375
aF-12637.2099609375
aF-12637.2099609375
aF-12637.2099609375
aF-12637.2099609375
aF-12637.2099609375
aF-12637.2099609375
aF-12637.2099609375
aF-12637.2099609375
aF-12637.2099609375
aF-12637.2099609375
aF-12637.2099609375
aF-12637.2099609375
aF-12637.2099609375
aF-12637.2099609375
aF-12637.2099609375
aF-12637.2099609375
aF-12637.2099609375
aF-12637.2099609375
aF-12637.2099609375
aF-12637.2099609375
aF-12637.2099609375
aF-12637.2099609375
aF-12637.2099609375
aF-12637.2099609375
aF-12637.2099609375
aF-12637.2099609375
aF-12637.2099609375
aF-12637.2099609375
aF-12637.2099609375
aF-12637.2099609375
aF-12637.2099609375
aF-12637.2099609375
aF-12637.2099609375
aF-12637.2099609375
aF-12637.2099609375
aF-12637.2099609375
aF-12637.2099609375
aF-12637.2099609375
aF-12637.2099609375
aF-12637.2099609375
aF-12637.2099609375
aF-12637.2099609375
aF-12637.2099609375
aF-12637.2099609375
aF-12637.2099609375
aF-12637.2099609375
aF-12637.2099609375
aF-12637.2099609375
aF-12637.2099609375
aF-12637.2099609375
aF-12637.2099609375
aF-12637.2099609375
aF-12637.2099609375
aF-12637.2099609375
aF-12637.2099609375
aF-12637.2099609375
aF-12637.2099609375
aF-12637.2099609375
aF-12637.2099609375
aF-12637.2099609375
aF-12637.2099609375
aF-12637.2099609375
aF-12637.2099609375
aF-12637.2099609375
aF-12637.2099609375
aF-12637.2099609375
aF-12637.2099609375
aF-12637.2099609375
aF-12637.2099609375
aF-12637.2099609375
aF-12637.2099609375
aF-12637.2099609375
aF-12637.2099609375
aF-12637.2099609375
aF-12637.2099609375
aF-12637.2099609375
aF-12637.2099609375
aF-12637.2099609375
aF-12637.2099609375
aF-12637.2099609375
aF-12637.2099609375
aF-12637.2099609375
aF-12637.2099609375
aF-12637.2099609375
aF-12637.2099609375
aF-12637.2099609375
aF-12637.2099609375
aF-12637.2099609375
aF-12637.2099609375
aF-12637.2099609375
aF-12637.2099609375
aF-12637.2099609375
aF-12637.2099609375
aF-12637.2099609375
aF-12637.2099609375
aF-12637.2099609375
aF-12637.2099609375
aF-12637.2099609375
aF-12637.2099609375
aF-12637.2099609375
aF-12637.2099609375
aF-12637.2099609375
aF-12637.2099609375
aF-12637.2099609375
aF-12637.2099609375
aF-12637.2099609375
aF-12637.2099609375
aF-12637.2099609375
aF-12637.2099609375
aF-12637.2099609375
aF-12637.2099609375
aF-12637.2099609375
aF-12637.2099609375
aF-12637.2099609375
aF-12637.2099609375
aF-12637.2099609375
aF-12637.2099609375
aF-12637.2099609375
aF-12637.2099609375
aF-12637.2099609375
aF-12637.2099609375
aF-12637.2099609375
aF-12637.2099609375
aF-12637.2099609375
aF-12637.2099609375
aF-12637.2099609375
aF-12637.2099609375
aF-12637.2099609375
aF-12637.2099609375
aF-12637.2099609375
aF-12637.2099609375
aF-12637.2099609375
aF-12637.2099609375
aF-12637.2099609375
aF-12637.2099609375
aF-12637.2099609375
aF-12637.2099609375
aF-12637.2099609375
aF-12637.2099609375
aF-12637.2099609375
aF-12637.2099609375
aF-12637.2099609375
aF-12637.2099609375
aF-12637.2099609375
aF-12637.2099609375
aF-12637.2099609375
aF-12637.2099609375
aF-12637.2099609375
aF-12637.2099609375
aF-12637.2099609375
aF-12637.2099609375
aF-12637.2099609375
aF-12637.2099609375
aF-12637.2099609375
aF-12637.2099609375
aF-12637.2099609375
aF-12637.2099609375
aF-12637.2099609375
aF-12637.2099609375
aF-12637.2099609375
aF-12637.2099609375
aF-12637.2099609375
aF-12637.2099609375
aF-12637.2099609375
aF-12637.2099609375
aF-12637.2099609375
aF-12637.2099609375
aF-12637.2099609375
aF-12637.2099609375
aF-12637.2099609375
aF-12637.2099609375
aF-12637.2099609375
aF-12637.2099609375
aF-12637.2099609375
aF-12637.2099609375
aF-12637.2099609375
aF-12637.2099609375
aF-12637.2099609375
aF-12637.2099609375
aF-12637.2099609375
aF-12637.2099609375
aF-12637.2099609375
aF-12637.2099609375
aF-12637.2099609375
aF-12637.2099609375
aF-12637.2099609375
aF-12637.2099609375
aF-12637.2099609375
aF-12637.2099609375
aF-12637.2099609375
aF-12637.2099609375
aF-12637.2099609375
aF-12637.2099609375
aF-12637.2099609375
aF-12637.2099609375
aF-12637.2099609375
aF-12637.2099609375
aF-12637.2099609375
aF-12637.2099609375
aF-12637.2099609375
aF-12637.2099609375
aF-12637.2099609375
aF-12637.2099609375
aF-12637.2099609375
aF-12637.2099609375
aF-12637.2099609375
aF-12637.2099609375
aF-12637.2099609375
aF-12637.2099609375
aF-12637.2099609375
aF-12637.2099609375
aF-12637.2099609375
aF-12637.2099609375
aF-12637.2099609375
aF-12637.2099609375
aF-12637.2099609375
aF-12637.2099609375
aF-12637.2099609375
aF-12637.2099609375
aF-12637.2099609375
aF-12637.2099609375
aF-12637.2099609375
aF-12637.2099609375
aF-12637.2099609375
aF-12637.2099609375
aF-12637.2099609375
aF-12637.2099609375
aF-12637.2099609375
aF-12637.2099609375
aF-12637.2099609375
aF-12637.2099609375
aF-12637.2099609375
aF-12637.2099609375
aF-12637.2099609375
aF-12637.2099609375
aF-12637.2099609375
aF-12637.2099609375
aF-12637.2099609375
aF-12637.2099609375
aF-12637.2099609375
aF-12637.2099609375
aF-12637.2099609375
aF-12637.2099609375
aF-12637.2099609375
aF-12637.2099609375
aF-12637.2099609375
aF-12637.2099609375
aF-12637.2099609375
aF-12637.2099609375
aF-12637.2099609375
aF-12637.2099609375
aF-12637.2099609375
aF-12637.2099609375
aF-12637.2099609375
aF-12637.2099609375
aF-12637.2099609375
aF-12637.2099609375
aF-12637.2099609375
aF-12637.2099609375
aF-12637.2099609375
aF-12637.2099609375
aF-12637.2099609375
aF-12637.2099609375
aF-12637.2099609375
aF-12637.2099609375
aF-12637.2099609375
aF-12637.2099609375
aF-12637.2099609375
aF-12637.2099609375
aF-12637.2099609375
aF-12637.2099609375
aF-12637.2099609375
aF-12637.2099609375
aF-12637.2099609375
aF-12637.2099609375
aF-12637.2099609375
aF-12637.2099609375
aF-12637.2099609375
aF-12637.2099609375
aF-12637.2099609375
aF-12637.2099609375
aF-12637.2099609375
aF-12637.2099609375
aF-12637.2099609375
aF-12637.2099609375
aF-12637.2099609375
aF-12637.2099609375
aF-12637.2099609375
aF-12637.2099609375
aF-12637.2099609375
aF-12637.2099609375
aF-12637.2099609375
aF-12637.2099609375
aF-12637.2099609375
aF-12637.2099609375
aF-12637.2099609375
aF-12637.2099609375
aF-12637.2099609375
aF-12637.2099609375
aF-12637.2099609375
aF-12637.2099609375
aF-12637.2099609375
aF-12637.2099609375
aF-12637.2099609375
aF-12637.2099609375
aF-12637.2099609375
aF-12637.2099609375
aF-12637.2099609375
aF-12637.2099609375
aF-12637.2099609375
aF-12637.2099609375
aF-12637.2099609375
aF-12637.2099609375
aF-12637.2099609375
aF-12637.2099609375
aF-12637.2099609375
aF-12637.2099609375
aF-12637.2099609375
aF-12637.2099609375
aF-12637.2099609375
aF-12637.2099609375
aF-12637.2099609375
aF-12637.2099609375
aF-12637.2099609375
aF-12637.2099609375
aF-12637.2099609375
aF-12637.2099609375
aF-12637.2099609375
aF-12637.2099609375
aF-12637.2099609375
aF-12637.2099609375
aF-12637.2099609375
aF-12637.2099609375
aF-12637.2099609375
aF-12637.2099609375
aF-12637.2099609375
aF-12637.2099609375
aF-12637.2099609375
aF-12637.2099609375
aF-12637.2099609375
aF-12637.2099609375
aF-12637.2099609375
aF-12637.2099609375
aF-12637.2099609375
aF-12637.2099609375
aF-12637.2099609375
aF-12637.2099609375
aF-12637.2099609375
aF-12637.2099609375
aF-12637.2099609375
aF-12637.2099609375
aF-12637.2099609375
aF-12637.2099609375
aF-12637.2099609375
aF-12637.2099609375
aF-12637.2099609375
aF-12637.2099609375
aF-12637.2099609375
aF-12637.2099609375
aF-12637.2099609375
aF-12637.2099609375
aF-12637.2099609375
aF-12637.2099609375
aF-12637.2099609375
aF-12637.2099609375
aF-12637.2099609375
aF-12637.2099609375
aF-12637.2099609375
aF-12637.2099609375
aF-12637.2099609375
aF-12637.2099609375
aF-12637.2099609375
aF-12637.2099609375
aF-12637.2099609375
aF-12637.2099609375
aF-12637.2099609375
aF-12637.2099609375
aF-12637.2099609375
aF-12637.2099609375
aF-12637.2099609375
aF-12637.2099609375
aF-12637.2099609375
aF-12637.2099609375
aF-12637.2099609375
aF-12637.2099609375
aF-12637.2099609375
aF-12637.2099609375
aF-12637.2099609375
aF-12637.2099609375
aF-12637.2099609375
aF-12637.2099609375
aF-12637.2099609375
aF-12637.2099609375
aF-12637.2099609375
aF-12637.2099609375
aF-12637.2099609375
aF-12637.2099609375
aF-12637.2099609375
aF-12637.2099609375
aF-12637.2099609375
aF-12637.2099609375
aF-12637.2099609375
aF-12637.2099609375
aF-12637.2099609375
aF-12637.2099609375
aF-12637.2099609375
aF-12637.2099609375
aF-12637.2099609375
aF-12637.2099609375
aF-12637.2099609375
aF-12637.2099609375
aF-12637.2099609375
aF-12637.2099609375
aF-12637.2099609375
aF-12637.2099609375
aF-12637.2099609375
aF-12637.2099609375
aF-12637.2099609375
aF-12637.2099609375
aF-12637.2099609375
aF-12637.2099609375
aF-12637.2099609375
aF-12637.2099609375
aF-12637.2099609375
aF-12637.2099609375
aF-12637.2099609375
aF-12637.2099609375
aF-12637.2099609375
aF-12637.2099609375
aF-12637.2099609375
aF-12637.2099609375
aF-12637.2099609375
aF-12637.2099609375
aF-12637.2099609375
aF-12637.2099609375
aF-12637.2099609375
aF-12637.2099609375
aF-12637.2099609375
aF-12637.2099609375
aF-12637.2099609375
aF-12637.2099609375
aF-12637.2099609375
aF-12637.2099609375
aF-12637.2099609375
aF-12637.2099609375
aF-12637.2099609375
aF-12637.2099609375
aF-12637.2099609375
aF-12637.2099609375
aF-12637.2099609375
aF-12637.2099609375
aF-12637.2099609375
aF-12637.2099609375
aF-12637.2099609375
aF-12637.2099609375
aF-12637.2099609375
aF-12637.2099609375
aF-12637.2099609375
aF-12637.2099609375
aF-12637.2099609375
aF-12637.2099609375
aF-12637.2099609375
aF-12637.2099609375
aF-12637.2099609375
aF-12637.2099609375
aF-12637.2099609375
aF-12637.2099609375
aF-12637.2099609375
aF-12637.2099609375
aF-12637.2099609375
aF-12637.2099609375
aF-12637.2099609375
aF-12637.2099609375
aF-12637.2099609375
aF-12637.2099609375
aF-12637.2099609375
aF-12637.2099609375
aF-12637.2099609375
aF-12637.2099609375
aF-12637.2099609375
aF-12637.2099609375
aF-12637.2099609375
aF-12637.2099609375
aF-12637.2099609375
aF-12637.2099609375
aF-12637.2099609375
aF-12637.2099609375
aF-12637.2099609375
aF-12637.2099609375
aF-12637.2099609375
aF-12637.2099609375
aF-12637.2099609375
aF-12637.2099609375
aF-12637.2099609375
aF-12637.2099609375
aF-12637.2099609375
aF-12637.2099609375
aF-12637.2099609375
aF-12637.2099609375
aF-12637.2099609375
aF-12637.2099609375
aF-12637.2099609375
aF-12637.2099609375
aF-12637.2099609375
aF-12637.2099609375
aF-12637.2099609375
aF-12637.2099609375
aF-12637.2099609375
aF-12637.2099609375
aF-12637.2099609375
aF-12637.2099609375
aF-12637.2099609375
aF-12637.2099609375
aF-12637.2099609375
aF-12637.2099609375
aF-12637.2099609375
aF-12637.2099609375
aF-12637.2099609375
aF-12637.2099609375
aF-12637.2099609375
aF-12637.2099609375
aF-12637.2099609375
aF-12637.2099609375
aF-12637.2099609375
aF-12637.2099609375
aF-12637.2099609375
aF-12637.2099609375
aF-12637.2099609375
aF-12637.2099609375
aF-12637.2099609375
aF-12637.2099609375
aF-12637.2099609375
aF-12637.2099609375
aF-12637.2099609375
aF-12637.2099609375
aF-12637.2099609375
aF-12637.2099609375
aF-12637.2099609375
aF-12637.2099609375
aF-12637.2099609375
aF-12637.2099609375
aF-12637.2099609375
aF-12637.2099609375
aF-12637.2099609375
aF-12637.2099609375
aF-12637.2099609375
aF-12637.2099609375
aF-12637.2099609375
aF-12637.2099609375
aF-12637.2099609375
aF-12637.2099609375
aF-12637.2099609375
aF-12637.2099609375
aF-12637.2099609375
aF-12637.2099609375
aF-12637.2099609375
aF-12637.2099609375
aF-12637.2099609375
aF-12637.2099609375
aF-12637.2099609375
aF-12637.2099609375
aF-12637.2099609375
aF-12637.2099609375
aF-12637.2099609375
aF-12637.2099609375
aF-12637.2099609375
aF-12637.2099609375
aF-12637.2099609375
aF-12637.2099609375
aF-12637.2099609375
aF-12637.2099609375
aF-12637.2099609375
aF-12637.2099609375
aF-12637.2099609375
aF-12637.2099609375
aF-12637.2099609375
aF-12637.2099609375
aF-12637.2099609375
aF-12637.2099609375
aF-12637.2099609375
aF-12637.2099609375
aF-12637.2099609375
aF-12637.2099609375
aF-12637.2099609375
aF-12637.2099609375
aF-12637.2099609375
aF-12637.2099609375
aF-12637.2099609375
aF-12637.2099609375
aF-12637.2099609375
aF-12637.2099609375
aF-12637.2099609375
aF-12637.2099609375
aF-12637.2099609375
aF-12637.2099609375
aF-12637.2099609375
aF-12637.2099609375
aF-12637.2099609375
aF-12637.2099609375
aF-12637.2099609375
aF-12637.2099609375
aF-12637.2099609375
aF-12637.2099609375
aF-12637.2099609375
aF-12637.2099609375
aF-12637.2099609375
aF-12637.2099609375
aF-12637.2099609375
aF-12637.2099609375
aF-12637.2099609375
aF-12637.2099609375
aF-12637.2099609375
aF-12637.2099609375
aF-12637.2099609375
aF-12637.2099609375
aF-12637.2099609375
aF-12637.2099609375
aF-12637.2099609375
aF-12637.2099609375
aF-12637.2099609375
aF-12637.2099609375
aF-12637.2099609375
aF-12637.2099609375
aF-12637.2099609375
aF-12637.2099609375
aF-12637.2099609375
aF-12637.2099609375
aF-12637.2099609375
aF-12637.2099609375
aF-12637.2099609375
aF-12637.2099609375
aF-12637.2099609375
aF-12637.2099609375
aF-12637.2099609375
aF-12637.2099609375
aF-12637.2099609375
aF-12637.2099609375
aF-12637.2099609375
aF-12637.2099609375
aF-12637.2099609375
aF-12637.2099609375
aF-12637.2099609375
aF-12637.2099609375
aF-12637.2099609375
aF-12637.2099609375
aF-12637.2099609375
aF-12637.2099609375
aF-12637.2099609375
aF-12637.2099609375
aF-12637.2099609375
aF-12637.2099609375
aF-12637.2099609375
aF-12637.2099609375
aF-12637.2099609375
aF-12637.2099609375
aF-12637.2099609375
aF-12637.2099609375
aF-12637.2099609375
aF-12637.2099609375
aF-12637.2099609375
aF-12637.2099609375
aF-12637.2099609375
aF-12637.2099609375
aF-12637.2099609375
aF-12637.2099609375
aF-12637.2099609375
aF-12637.2099609375
aF-12637.2099609375
aF-12637.2099609375
aF-12637.2099609375
aF-12637.2099609375
aF-12637.2099609375
aF-12637.2099609375
aF-12637.2099609375
aF-12637.2099609375
aF-12637.2099609375
aF-12637.2099609375
aF-12637.2099609375
aF-12637.2099609375
aF-12637.2099609375
aF-12637.2099609375
aF-12637.2099609375
aF-12637.2099609375
aF-12637.2099609375
aF-12637.2099609375
aF-12637.2099609375
aF-12637.2099609375
aF-12637.2099609375
aF-12637.2099609375
aF-12637.2099609375
aF-12637.2099609375
aF-12637.2099609375
aF-12637.2099609375
aF-12637.2099609375
aF-12637.2099609375
aF-12637.2099609375
aF-12637.2099609375
aF-12637.2099609375
aF-12637.2099609375
aF-12637.2099609375
aF-12637.2099609375
aF-12637.2099609375
aF-12637.2099609375
aF-12637.2099609375
aF-12637.2099609375
aF-12637.2099609375
aF-12637.2099609375
aF-12637.2099609375
aF-12637.2099609375
aF-12637.2099609375
aF-12637.2099609375
aF-12637.2099609375
aF-12637.2099609375
aF-12637.2099609375
aF-12637.2099609375
aF-12637.2099609375
aF-12637.2099609375
aF-12637.2099609375
aF-12637.2099609375
aF-12637.2099609375
aF-12637.2099609375
aF-12637.2099609375
aF-12637.2099609375
aF-12637.2099609375
aF-12637.2099609375
aF-12637.2099609375
aF-12637.2099609375
aF-12637.2099609375
aF-12637.2099609375
aF-12637.2099609375
aF-12637.2099609375
aF-12637.2099609375
aF-12637.2099609375
aF-12637.2099609375
aF-12637.2099609375
aF-12637.2099609375
aF-12637.2099609375
aF-12637.2099609375
aF-12637.2099609375
aF-12637.2099609375
aF-12637.2099609375
aF-12637.2099609375
aF-12637.2099609375
aF-12637.2099609375
aF-12637.2099609375
aF-12637.2099609375
aF-12637.2099609375
aF-12637.2099609375
aF-12637.2099609375
aF-12637.2099609375
aF-12637.2099609375
aF-12637.2099609375
aF-12637.2099609375
aF-12637.2099609375
aF-12637.2099609375
aF-12637.2099609375
aF-12637.2099609375
aF-12637.2099609375
aF-12637.2099609375
aF-12637.2099609375
aF-12637.2099609375
aF-12637.2099609375
aF-12637.2099609375
aF-12637.2099609375
aF-12637.2099609375
aF-12637.2099609375
aF-12637.2099609375
aF-12637.2099609375
aF-12637.2099609375
aF-12637.2099609375
aF-12637.2099609375
aF-12637.2099609375
aF-12637.2099609375
aF-12637.2099609375
aF-12637.2099609375
aF-12637.2099609375
aF-12637.2099609375
aF-12637.2099609375
aF-12637.2099609375
aF-12637.2099609375
aF-12637.2099609375
aF-12637.2099609375
aF-12637.2099609375
aF-12637.2099609375
aF-12637.2099609375
aF-12637.2099609375
aF-12637.2099609375
aF-12637.2099609375
aF-12637.2099609375
aF-12637.2099609375
aF-12637.2099609375
aF-12637.2099609375
aF-12637.2099609375
aF-12637.2099609375
aF-12637.2099609375
aF-12637.2099609375
aF-12637.2099609375
aF-12637.2099609375
aF-12637.2099609375
aF-12637.2099609375
aF-12637.2099609375
aF-12637.2099609375
aF-12637.2099609375
aF-12637.2099609375
aF-12637.2099609375
aF-12637.2099609375
aF-12637.2099609375
aF-12637.2099609375
aF-12637.2099609375
aF-12637.2099609375
aF-12637.2099609375
aF-12637.2099609375
aF-12637.2099609375
aF-12637.2099609375
aF-12637.2099609375
aF-12637.2099609375
aF-12637.2099609375
aF-12637.2099609375
aF-12637.2099609375
aF-12637.2099609375
aF-12637.2099609375
aF-12637.2099609375
aF-12637.2099609375
aF-12637.2099609375
aF-12637.2099609375
aF-12637.2099609375
aF-12637.2099609375
aF-12637.2099609375
aF-12637.2099609375
aF-12637.2099609375
aF-12637.2099609375
aF-12637.2099609375
aF-12637.2099609375
aF-12637.2099609375
aF-12637.2099609375
aF-12637.2099609375
aF-12637.2099609375
aF-12637.2099609375
aF-12637.2099609375
aF-12637.2099609375
aF-12637.2099609375
aF-12637.2099609375
aF-12637.2099609375
aF-12637.2099609375
aF-12637.2099609375
aF-12637.2099609375
aF-12637.2099609375
aF-12637.2099609375
aF-12637.2099609375
aF-12637.2099609375
aF-12637.2099609375
aF-12637.2099609375
aF-12637.2099609375
aF-12637.2099609375
aF-12637.2099609375
aF-12637.2099609375
aF-12637.2099609375
aF-12637.2099609375
aF-12637.2099609375
aF-12637.2099609375
aF-12637.2099609375
aF-12637.2099609375
aF-12637.2099609375
aF-12637.2099609375
aF-12637.2099609375
aF-12637.2099609375
aF-12637.2099609375
aF-12637.2099609375
aF-12637.2099609375
aF-12637.2099609375
aF-12637.2099609375
aF-12637.2099609375
aF-12637.2099609375
aF-12637.2099609375
aF-12637.2099609375
aF-12637.2099609375
a.