(lp1
F-11134.4365234375
aF-11422.337890625
aF-11071.5732421875
aF-9198.232421875
aF-8844.8466796875
aF-11743.765625
aF-10210.2294921875
aF-10080.580078125
aF-9636.9970703125
aF-10307.0869140625
aF-8675.4013671875
aF-10057.1064453125
aF-11428.1005859375
aF-11151.158203125
aF-11351.1435546875
aF-11726.349609375
aF-10705.30078125
aF-10000.732421875
aF-11088.4970703125
aF-9635.134765625
aF-12647.29296875
aF-10852.9482421875
aF-11508.26953125
aF-10225.36328125
aF-11196.8876953125
aF-9668.68359375
aF-10696.5078125
aF-8222.7900390625
aF-10671.5224609375
aF-9003.302734375
aF-10604.697265625
aF-9850.8056640625
aF-10643.8212890625
aF-11100.4755859375
aF-9487.2216796875
aF-10328.6162109375
aF-10395.5224609375
aF-9470.1435546875
aF-9772.4130859375
aF-10556.037109375
aF-10051.12890625
aF-9840.255859375
aF-9967.1728515625
aF-9272.44140625
aF-10271.244140625
aF-8938.7138671875
aF-10575.8564453125
aF-11144.1025390625
aF-11147.888671875
aF-10450.2861328125
aF-11244.9619140625
aF-9288.22265625
aF-9660.224609375
aF-9442.013671875
aF-10868.4345703125
aF-10793.228515625
aF-9982.955078125
aF-9521.833984375
aF-8537.4052734375
aF-9562.126953125
aF-10716.1826171875
aF-10892.09765625
aF-11034.44140625
aF-9594.9833984375
aF-11014.5009765625
aF-9415.6845703125
aF-9932.6181640625
aF-10342.2607421875
aF-8850.8603515625
aF-11423.041015625
aF-9570.640625
aF-11177.345703125
aF-11226.6240234375
aF-10918.048828125
aF-9435.0322265625
aF-10055.9951171875
aF-10637.365234375
aF-10661.423828125
aF-12436.1171875
aF-11210.111328125
aF-9475.0048828125
aF-9978.2626953125
aF-11165.9462890625
aF-11112.052734375
aF-10404.4697265625
aF-11518.6982421875
aF-9890.9462890625
aF-11398.9365234375
aF-7940.54443359375
aF-10558.9208984375
aF-11029.337890625
aF-11478.71875
aF-9501.7041015625
aF-11495.4892578125
aF-11014.1708984375
aF-10258.6123046875
aF-10120.5673828125
aF-8748.1591796875
aF-10050.2490234375
aF-12060.0185546875
aF-10804.2041015625
aF-11143.548828125
aF-11416.7060546875
aF-10920.65625
aF-10220.4365234375
aF-10254.7177734375
aF-10535.515625
aF-9236.109375
aF-11056.8271484375
aF-11132.416015625
aF-11131.6474609375
aF-9386.5439453125
aF-9995.3134765625
aF-9822.548828125
aF-9957.2744140625
aF-10445.07421875
aF-10047.9677734375
aF-11396.1953125
aF-10669.3369140625
aF-10352.951171875
aF-9785.2255859375
aF-9155.4609375
aF-10303.0732421875
aF-8925.2216796875
aF-10895.6591796875
aF-10529.6259765625
aF-9644.9482421875
aF-10957.361328125
aF-10063.400390625
aF-11926.486328125
aF-10185.9609375
aF-9808.2490234375
aF-8576.5888671875
aF-10610.080078125
aF-9463.818359375
aF-10495.232421875
aF-10195.021484375
aF-10223.86328125
aF-11190.5625
aF-10653.4921875
aF-9929.58984375
aF-11006.9443359375
aF-11326.8115234375
aF-8487.3740234375
aF-9834.306640625
aF-8945.3603515625
aF-11362.46484375
aF-10119.9091796875
aF-8388.751953125
aF-11922.359375
aF-10144.75390625
aF-8940.53125
aF-10503.326171875
aF-10597.8623046875
aF-9445.5078125
aF-10346.49609375
aF-9773.4130859375
aF-10595.0556640625
aF-11470.9658203125
aF-9282.6083984375
aF-10276.3935546875
aF-8939.86328125
aF-10047.138671875
aF-11178.6591796875
aF-10428.466796875
aF-10129.3623046875
aF-11199.8154296875
aF-11305.5078125
aF-10869.71484375
aF-7255.46728515625
aF-10507.6875
aF-10616.4404296875
aF-11964.8095703125
aF-11082.0869140625
aF-10384.3076171875
aF-9177.0546875
aF-9738.212890625
aF-11106.1611328125
aF-8931.064453125
aF-8869.7216796875
aF-10359.455078125
aF-10195.166015625
aF-11330.3857421875
aF-9042.755859375
aF-10827.23828125
aF-10463.4375
aF-11076.7060546875
aF-8855.31640625
aF-9812.4990234375
aF-11015.677734375
aF-10330.72265625
aF-10897.36328125
aF-10629.0146484375
aF-10875.240234375
aF-8804.46484375
aF-9068.7265625
aF-10913.7412109375
aF-9827.5556640625
aF-10488.7470703125
aF-10011.80859375
aF-11309.8466796875
aF-10877.4697265625
aF-11434.9404296875
aF-10950.05859375
aF-9012.873046875
aF-9749.041015625
aF-10487.1640625
aF-10088.431640625
aF-11513.384765625
aF-11248.755859375
aF-10630.7646484375
aF-10366.7353515625
aF-10445.544921875
aF-11732.443359375
aF-8865.6416015625
aF-9978.0361328125
aF-10682.9306640625
aF-9474.7919921875
aF-10113.322265625
aF-11357.4560546875
aF-10160.578125
aF-10221.958984375
aF-10503.32421875
aF-12548.8095703125
aF-10317.3408203125
aF-8338.04296875
aF-11214.763671875
aF-10748.990234375
aF-10292.044921875
aF-11076.265625
aF-10493.63671875
aF-10677.7958984375
aF-10143.849609375
aF-10166.126953125
aF-12486.0966796875
aF-11079.19140625
aF-10300.2255859375
aF-11296.302734375
aF-10188.8818359375
aF-8352.3759765625
aF-11538.9248046875
aF-10286.2431640625
aF-11807.380859375
aF-9390.5908203125
aF-10804.4912109375
aF-10161.5341796875
aF-9957.6904296875
aF-10996.9658203125
aF-11505.4453125
aF-9897.609375
aF-11690.0517578125
aF-11565.0263671875
aF-10967.779296875
aF-10359.3349609375
aF-9514.0869140625
aF-10001.505859375
aF-10025.044921875
aF-10822.5078125
aF-11562.51171875
aF-10318.2470703125
aF-10524.01171875
aF-10613.6171875
aF-10676.5634765625
aF-7760.68359375
aF-11560.6728515625
aF-8794.3369140625
aF-9678.123046875
aF-10230.6591796875
aF-9890.171875
aF-11467.6240234375
aF-10116
aF-10373.8603515625
aF-9904.169921875
aF-11260.00390625
aF-10901.052734375
aF-9773.67578125
aF-10840.2490234375
aF-9914.60546875
aF-11263.1513671875
aF-8139.990234375
aF-10654.716796875
aF-10724.609375
aF-10362.732421875
aF-10069.478515625
aF-10274.5361328125
aF-10852.900390625
aF-11294.8427734375
aF-10922.7197265625
aF-9559.12109375
aF-9908.8232421875
aF-10571.134765625
aF-10107.158203125
aF-9673.09765625
aF-10020.5859375
aF-11544.4912109375
aF-10888.9052734375
aF-10113.2919921875
aF-9925.306640625
aF-8893.5595703125
aF-11380.7353515625
aF-9734.7763671875
aF-10633.0029296875
aF-9844.7470703125
aF-12102.2060546875
aF-9791.9287109375
aF-10002.865234375
aF-11387.97265625
aF-10505.09765625
aF-10022.9013671875
aF-11067.890625
aF-9341.6142578125
aF-10638.5517578125
aF-10938.298828125
aF-10242.1025390625
aF-9060.6884765625
aF-9606.982421875
aF-10368.7451171875
aF-10370.4912109375
aF-9180.2890625
aF-9911.8701171875
aF-11414.9365234375
aF-9507.8037109375
aF-11040.447265625
aF-10321.1357421875
aF-10180.755859375
aF-11201.8759765625
aF-10527.005859375
aF-9724
aF-10449.228515625
aF-10530.658203125
aF-11222.939453125
aF-8940.2255859375
aF-11189.32421875
aF-9346.3828125
aF-11932.2548828125
aF-10674.9658203125
aF-9230.26953125
aF-10253.548828125
aF-10615.6025390625
aF-10498.2509765625
aF-9602.0556640625
aF-11082.3701171875
aF-10081.376953125
aF-13374.2763671875
aF-9528.517578125
aF-11030.5859375
aF-9716.07421875
aF-10850.0595703125
aF-9244.615234375
aF-10175.2919921875
aF-10752.91796875
aF-9423.568359375
aF-9851.8876953125
aF-8630.9365234375
aF-9219.63671875
aF-11946.28515625
aF-10071.73828125
aF-9895.4267578125
aF-11356.283203125
aF-9448.1015625
aF-9592.54296875
aF-9498.7353515625
aF-11206.91796875
aF-10845.9423828125
aF-10157
aF-9581.30078125
aF-10390.908203125
aF-9240.751953125
aF-8867.541015625
aF-10001.158203125
aF-11654.3046875
aF-10039.9912109375
aF-11990.6865234375
aF-9652.5537109375
aF-9430.3056640625
aF-10738.1796875
aF-9995.220703125
aF-9578.8603515625
aF-11272.640625
aF-10033.619140625
aF-9384.8369140625
aF-10247.28125
aF-9635.7177734375
aF-10436.3828125
aF-10135.099609375
aF-9993.2431640625
aF-10587.8408203125
aF-10550.3837890625
aF-9336.814453125
aF-11450.2431640625
aF-11555.751953125
aF-11652.90625
aF-10200.349609375
aF-10524.8447265625
aF-9199.966796875
aF-10042.5576171875
aF-9616.9140625
aF-9327.162109375
aF-10961.0693359375
aF-10174.1123046875
aF-11048.517578125
aF-12106.923828125
aF-9861.2958984375
aF-11224.931640625
aF-11192.9794921875
aF-10028.642578125
aF-9594.646484375
aF-9485.8720703125
aF-10821.505859375
aF-10191.021484375
aF-9265.4501953125
aF-10253.6689453125
aF-9599.744140625
aF-9279.6220703125
aF-11951.2626953125
aF-9372.095703125
aF-9812.7060546875
aF-10699.634765625
aF-11578.8896484375
aF-10237.119140625
aF-9480.453125
aF-10421.5732421875
aF-11159.3359375
aF-9699.8515625
aF-10103.6708984375
aF-10664.939453125
aF-8089.62109375
aF-11170.9306640625
aF-11136.6337890625
aF-11074.5869140625
aF-10486.7822265625
aF-10009.2646484375
aF-10212.4736328125
aF-10564.8486328125
aF-8820.7607421875
aF-9651.84765625
aF-8664.4111328125
aF-8749.8466796875
aF-10582.56640625
aF-11467.716796875
aF-10725.912109375
aF-10434.2353515625
aF-10631.255859375
aF-8821.0439453125
aF-10709.6669921875
aF-9323.8701171875
aF-10784.4228515625
aF-10642.294921875
aF-8852.1455078125
aF-10606.2109375
aF-10377.05859375
aF-10155.2724609375
aF-11487.3291015625
aF-10706.7216796875
aF-10766.9521484375
aF-11598.84375
aF-10449.7724609375
aF-11491.876953125
aF-9850.80078125
aF-11535.046875
aF-9629.0595703125
aF-9703.7529296875
aF-9423.7958984375
aF-11306.7919921875
aF-12269.486328125
aF-11108.7431640625
aF-10731.064453125
aF-11296.9130859375
aF-8924.2529296875
aF-11930.1513671875
aF-10414.30078125
aF-9529.578125
aF-10199.6748046875
aF-10971.8017578125
aF-11467.85546875
aF-9401.1767578125
aF-11106.3603515625
aF-9377.220703125
aF-8165.9501953125
aF-10004.228515625
aF-10359.6201171875
aF-11162.5263671875
aF-10395.224609375
aF-10658.798828125
aF-11230.11328125
aF-9570.7373046875
aF-10318.5888671875
aF-10357.5146484375
aF-10927.078125
aF-10296.7919921875
aF-10975.3505859375
aF-10291.927734375
aF-10386.9423828125
aF-10929.0107421875
aF-11033.3427734375
aF-11171.1884765625
aF-9761.54296875
aF-12585.291015625
aF-8164.46826171875
aF-9563.9521484375
aF-11755.05859375
aF-9916.94140625
aF-11996.68359375
aF-9508.68359375
aF-11365.1787109375
aF-11416.958984375
aF-11304.154296875
aF-10180.025390625
aF-8897.904296875
aF-10024.322265625
aF-9665.2529296875
aF-9884.3671875
aF-10041.2568359375
aF-9939.7783203125
aF-10375.712890625
aF-10455.53125
aF-10986.474609375
aF-10105.6123046875
aF-10258.697265625
aF-10715.73828125
aF-10261.1376953125
aF-9835.1435546875
aF-9707.455078125
aF-11784.775390625
aF-9209.744140625
aF-9219.599609375
aF-10821.466796875
aF-9822.6708984375
aF-8611.3623046875
aF-10511.3154296875
aF-9525.2626953125
aF-10135.802734375
aF-12317.630859375
aF-11449.8994140625
aF-10402.212890625
aF-10495.4140625
aF-11478.7802734375
aF-12048.1708984375
aF-9978.427734375
aF-9810.1484375
aF-11081.4853515625
aF-9308.51953125
aF-10259.626953125
aF-10587.65234375
aF-8572.912109375
aF-10293.53515625
aF-9847.1416015625
aF-8115.62744140625
aF-9603.2001953125
aF-9078.916015625
aF-10267.2626953125
aF-11306.9833984375
aF-10109.2060546875
aF-10132.955078125
aF-10217.857421875
aF-10371.0087890625
aF-10816.806640625
aF-9030.46875
aF-10833.701171875
aF-10533.162109375
aF-10078.47265625
aF-9799.8056640625
aF-10289.634765625
aF-11374.275390625
aF-11047.0703125
aF-9950.2744140625
aF-10364.2138671875
aF-11742.314453125
aF-11370.236328125
aF-9842.380859375
aF-9510.0087890625
aF-9688.361328125
aF-10360.5810546875
aF-11099.759765625
aF-9555.6669921875
aF-10380.8984375
aF-9555.650390625
aF-11166.6435546875
aF-9848.130859375
aF-10142.7021484375
aF-9126.333984375
aF-10078.1279296875
aF-11046.6865234375
aF-7430.111328125
aF-10016.857421875
aF-9697.2509765625
aF-11147.724609375
aF-11660.134765625
aF-10035.4697265625
aF-9126.32421875
aF-10230.3203125
aF-9123.4599609375
aF-10112.8994140625
aF-8661.91015625
aF-10916.921875
aF-10477.75
aF-8777.94921875
aF-7057.9658203125
aF-9030.7939453125
aF-10239.513671875
aF-10281.8046875
aF-9917.751953125
aF-9983.1181640625
aF-12318.40234375
aF-11696.9794921875
aF-11559.6962890625
aF-11139.6376953125
aF-12135.876953125
aF-9932.5625
aF-11485.6015625
aF-11088.3193359375
aF-9938.0302734375
aF-10418.548828125
aF-9898.037109375
aF-9761.60546875
aF-10003.5224609375
aF-10257.9794921875
aF-10135.5126953125
aF-9795.5537109375
aF-9733.3330078125
aF-10754.7265625
aF-9111.4501953125
aF-10615.7373046875
aF-11270.09375
aF-11917.28125
aF-9443.486328125
aF-10688.3515625
aF-11474.8271484375
aF-10708.728515625
aF-10780.587890625
aF-9566.8203125
aF-10219.41796875
aF-11743.318359375
aF-11353.3759765625
aF-9864.005859375
aF-10264.9609375
aF-10287.4453125
aF-9602.4765625
aF-12004.1630859375
aF-10018.5244140625
aF-8774.021484375
aF-10269.8720703125
aF-8923.375
aF-10354.2431640625
aF-9372.046875
aF-9673.111328125
aF-9719.103515625
aF-10702.630859375
aF-9253.6630859375
aF-10150.1484375
aF-11473.5849609375
aF-11162.9951171875
aF-10287.0048828125
aF-9495.955078125
aF-10248.3603515625
aF-10008.818359375
aF-10350.4619140625
aF-11413.634765625
aF-10606.91015625
aF-11470.8779296875
aF-8762.583984375
aF-9862.318359375
aF-10670.6259765625
aF-8899.2197265625
aF-10730.4697265625
aF-9607.4326171875
aF-9419.9873046875
aF-9726.900390625
aF-11373.0390625
aF-10617.287109375
aF-10074.8154296875
aF-10170.04296875
aF-11732.01171875
aF-10829.5693359375
aF-8919.923828125
aF-10225.3779296875
aF-9600.0400390625
aF-11063.2421875
aF-9530.11328125
aF-9092.720703125
aF-9187.87109375
aF-9751.2998046875
aF-11525.65625
aF-11507.072265625
aF-10285.40625
aF-10748.599609375
aF-10109.033203125
aF-10700.708984375
aF-9351.6328125
aF-10255.068359375
aF-9089.4912109375
aF-10594.7822265625
aF-9798.0224609375
aF-9238.33984375
aF-10499.5380859375
aF-9635.7587890625
aF-9242.9013671875
aF-10631.955078125
aF-11886.16015625
aF-11034.0546875
aF-10828.44140625
aF-9420.7197265625
aF-11387.0517578125
aF-9458.5078125
aF-10616.771484375
aF-11924.90625
aF-11591.802734375
aF-8254.50390625
aF-9201.08984375
aF-10641.2509765625
aF-12001.79296875
aF-10238.0146484375
aF-10005.8935546875
aF-10012.0419921875
aF-9925.9716796875
aF-10133.6240234375
aF-9970.544921875
aF-9526.95703125
aF-11580.8623046875
aF-9916.9384765625
aF-8838.078125
aF-10084.2119140625
aF-8721.2265625
aF-11816.005859375
aF-10278.89453125
aF-10219.2568359375
aF-9216.3369140625
aF-9055.3466796875
aF-9436.19921875
aF-9565.376953125
aF-9024.478515625
aF-9639.765625
aF-10859.9287109375
aF-9290.4453125
aF-10101.330078125
aF-10282.4541015625
aF-9749.53125
aF-11442.59375
aF-11648.0302734375
aF-9863.2626953125
aF-10552.6025390625
aF-8627.8955078125
aF-9638.517578125
aF-9534.3564453125
aF-12439.0361328125
aF-11548.5478515625
aF-11700.63671875
aF-9160.4638671875
aF-10246.8544921875
aF-12300.1708984375
aF-10894.7275390625
aF-10322.439453125
aF-11761.6748046875
aF-8934.1181640625
aF-9703.3544921875
aF-8372.041015625
aF-10748.1884765625
aF-10283.8076171875
aF-10959.3154296875
aF-10664.7607421875
aF-11946.8623046875
aF-11071.771484375
aF-10721.4599609375
aF-10007.298828125
aF-9923.6240234375
aF-9438.00390625
aF-10726.8017578125
aF-10440.82421875
aF-10219.3251953125
aF-11074.0400390625
aF-10382.8154296875
aF-9163.38671875
aF-12373.4560546875
aF-10255.154296875
aF-9709.3349609375
aF-10336.62890625
aF-10857.109375
aF-9313.5400390625
aF-10487.73046875
aF-9814.4365234375
aF-11320.9560546875
aF-9905.4560546875
aF-11266.9580078125
aF-11197.5205078125
aF-10834.3935546875
aF-11731.6484375
aF-10990.0859375
aF-9206.9189453125
aF-9605.4287109375
aF-11040.2158203125
aF-8771.94921875
aF-9561.17578125
aF-11295.2275390625
aF-10003.6298828125
aF-10625.0126953125
aF-10710.4228515625
aF-10796.216796875
aF-9080.2578125
aF-10417.6083984375
aF-9507.634765625
aF-9273.369140625
aF-10370.2978515625
aF-10373.8955078125
aF-10128.640625
aF-9946.2646484375
aF-10345.02734375
aF-11480.7470703125
aF-9556.267578125
aF-10114.876953125
aF-10025.6142578125
aF-11760.0595703125
aF-10257.0654296875
aF-11524.91796875
aF-11094.1015625
aF-9733.4306640625
aF-12477.7158203125
aF-9925.1259765625
aF-9623.837890625
aF-10361.3125
aF-9495.94140625
aF-10610.4111328125
aF-9125.8896484375
aF-9591.4296875
aF-10215.572265625
aF-9714.3779296875
aF-10419.3984375
aF-9059.033203125
aF-8945.849609375
aF-10514.470703125
aF-11065.7548828125
aF-10538.8037109375
aF-11007.7080078125
aF-11760.64453125
aF-11235.75390625
aF-10443.9375
aF-9793.1552734375
aF-10901.533203125
aF-10820.287109375
aF-9016.4599609375
aF-9253.5849609375
aF-10106.802734375
aF-8287.7470703125
aF-10016.0205078125
aF-9292.580078125
aF-11592.423828125
aF-11687.666015625
aF-11728.755859375
aF-9228.873046875
aF-9810.86328125
aF-9981.505859375
aF-10620.95703125
aF-9884.642578125
aF-9059.9931640625
aF-10446.0078125
aF-10198.556640625
aF-9523.2412109375
aF-9823.9296875
aF-9525.3125
aF-10030.6015625
aF-11416.439453125
aF-8988.19921875
aF-9656.6064453125
aF-10541.31640625
aF-8648.099609375
aF-11060.3251953125
aF-9511.8427734375
aF-11897.568359375
aF-10184.7333984375
aF-10389.5966796875
aF-11075.955078125
aF-9948.8154296875
aF-11408.0380859375
aF-10647.2958984375
aF-9911.0234375
aF-9185.9775390625
aF-10738.451171875
aF-10834.7841796875
aF-11617.5390625
aF-10631.4453125
aF-11331.564453125
aF-10150.7724609375
aF-10849.8701171875
aF-10844.8837890625
aF-11896.4853515625
aF-12039.396484375
aF-8306.5693359375
aF-9408.169921875
aF-11005.5087890625
aF-10362.2099609375
aF-10625.701171875
aF-9612.8271484375
aF-10220.8515625
aF-10032.146484375
aF-8650.7412109375
aF-11223.662109375
aF-10483.4228515625
aF-10245.7744140625
aF-9402.6767578125
aF-11587.5625
aF-10074.087890625
aF-10675.63671875
aF-9970.28125
aF-11183.525390625
aF-10381.0947265625
aF-12194.1181640625
aF-11068.33984375
aF-9753.9619140625
aF-9834.9130859375
aF-10633.21484375
aF-9370.58984375
aF-9223.162109375
aF-11119.28125
aF-10107.4208984375
aF-10384.0126953125
aF-10001.5859375
aF-11057.734375
aF-8984.5927734375
aF-10236.3330078125
aF-9423.4892578125
aF-9193.4501953125
aF-9392.5263671875
aF-9163.1435546875
aF-11052.6298828125
aF-10283.3173828125
aF-9824.859375
aF-8610.6533203125
aF-9799.5673828125
aF-9112.880859375
aF-11569.00390625
aF-10709.126953125
aF-10922.537109375
aF-10621.529296875
aF-11261.56640625
aF-9930.6728515625
aF-11396.5048828125
aF-10653.1533203125
aF-9444.951171875
aF-11615.869140625
aF-8522.3212890625
aF-11536.9677734375
aF-11469.85546875
aF-9236.7861328125
aF-10745.515625
aF-10485.5712890625
aF-9211.607421875
aF-10593.6669921875
aF-11111.396484375
aF-10748.3818359375
aF-10260.3984375
aF-10746.0380859375
aF-10378.1376953125
aF-9207.8701171875
aF-9946.404296875
aF-10952.5048828125
aF-10852.2548828125
aF-10728.1845703125
aF-8799.658203125
aF-10264.373046875
aF-10608.3837890625
aF-11241.951171875
aF-9737.5751953125
aF-8480.525390625
aF-9626.9248046875
aF-11026.978515625
aF-8859.0263671875
aF-10411.8203125
aF-8920.2744140625
aF-9958.7529296875
aF-10211.59375
aF-7968.22265625
aF-10372.275390625
aF-9806.2021484375
aF-10403.7314453125
aF-10961.6416015625
aF-10736.5888671875
aF-11121.853515625
aF-9972.02734375
aF-10196.330078125
aF-9236.53515625
aF-11563.1083984375
aF-10718.6591796875
aF-10615.00390625
aF-10936.2861328125
aF-11778.2021484375
aF-10172.8095703125
aF-9566.134765625
aF-10784.435546875
aF-10104.63671875
aF-8361.412109375
aF-10057.0927734375
aF-10219.841796875
aF-10180.681640625
aF-11594.755859375
aF-8837.1337890625
aF-9225.1806640625
aF-9226.1396484375
aF-10595.232421875
aF-8203.0703125
aF-9797.0322265625
aF-11500.4501953125
aF-8872.623046875
aF-10876.375
aF-11014.3916015625
aF-9516.5791015625
aF-11674.3310546875
aF-10234.498046875
aF-12493.5546875
aF-10266.1259765625
aF-11050.1806640625
aF-7896.169921875
aF-10250.7626953125
aF-9357.16796875
aF-10208.265625
aF-9248.3701171875
aF-9084.1865234375
aF-10720.279296875
aF-11359.75390625
aF-8844.6357421875
aF-9353.482421875
aF-10192.9638671875
aF-9701.01953125
aF-10501.2724609375
aF-9761.3984375
aF-9672.5400390625
aF-10174.9521484375
aF-10491.99609375
aF-11010.7978515625
aF-9085.521484375
aF-9253.5380859375
aF-11573.3583984375
aF-9314.744140625
aF-10180.810546875
aF-8846.640625
aF-11381.4248046875
aF-8666.67578125
aF-10510.6201171875
aF-9629.65625
aF-11678.7744140625
aF-10296.41796875
aF-9984.7314453125
aF-9882.87109375
aF-10366.52734375
aF-9213.5615234375
aF-8894.0498046875
aF-10677.603515625
aF-9763.263671875
aF-10158.357421875
aF-9475.5771484375
aF-11437.3740234375
aF-12493.4140625
aF-9619.6884765625
aF-9365.64453125
aF-10038.654296875
aF-10417.7685546875
aF-10749.6826171875
aF-10681.7392578125
aF-9514.234375
aF-10045.2001953125
aF-10088.724609375
aF-9100.6015625
aF-11437.01171875
aF-8610.283203125
aF-9800.826171875
aF-11420.0283203125
aF-10226.130859375
aF-10896.56640625
aF-9878.248046875
aF-9637.896484375
aF-9672.650390625
aF-10427.150390625
aF-10714.4462890625
aF-9183.2216796875
aF-9258.5009765625
aF-8751.111328125
aF-9758.630859375
aF-10952.2138671875
aF-10793.9443359375
aF-9591.943359375
aF-9559.28515625
aF-10231.3828125
aF-9498.5390625
aF-10715.6494140625
aF-10262.197265625
aF-11037.1298828125
aF-10418.1396484375
aF-9477.0439453125
aF-8925.3212890625
aF-11202.4404296875
aF-9586.9052734375
aF-9693.447265625
aF-10365.490234375
aF-9183.3095703125
aF-10055.1064453125
aF-10130.3271484375
aF-9400.2568359375
aF-10107.8232421875
aF-9840.7470703125
aF-11202.3330078125
aF-11280.810546875
aF-11472.78125
aF-10820.787109375
aF-10775.3525390625
aF-9998.056640625
aF-8957.2626953125
aF-9723.8232421875
aF-11273.216796875
aF-8709.865234375
aF-9521.1865234375
aF-10457.0107421875
aF-9780.509765625
aF-8752.978515625
aF-11613.453125
aF-11710.580078125
aF-10200.62109375
aF-9790.9765625
aF-8254.8330078125
aF-11334.9775390625
aF-11931.5185546875
aF-11445.861328125
aF-9046.22265625
aF-11270.6708984375
aF-11305.396484375
aF-9065.265625
aF-10059.7236328125
aF-10361.94921875
aF-8931.5546875
aF-10600.2890625
aF-10939.7001953125
aF-10316.1689453125
aF-10488.7216796875
aF-10434.4326171875
aF-9581.6611328125
aF-8981.1728515625
aF-9753.9091796875
aF-9513.7294921875
aF-10042.53515625
aF-8496.09375
aF-10361.2412109375
aF-9770.5419921875
aF-9687.826171875
aF-9773.72265625
aF-10932.72265625
aF-9671.181640625
aF-10012.740234375
aF-9890.6533203125
aF-10135.0107421875
aF-9333.640625
aF-8558.6474609375
aF-10971.3076171875
aF-11210.2392578125
aF-10112.359375
aF-10632.6298828125
aF-11511.7158203125
aF-9521.83984375
aF-12179.3828125
aF-9555.185546875
aF-10843.6318359375
aF-8736.810546875
aF-11066.8984375
aF-10648.373046875
aF-9441.5458984375
aF-10301.2275390625
aF-11905.1416015625
aF-11811.1748046875
aF-10343.2021484375
aF-9663.294921875
aF-9460.4541015625
aF-10535.9462890625
aF-12499.025390625
aF-10480.4365234375
aF-10188.873046875
aF-10027.0419921875
aF-10329.13671875
aF-10814.09375
aF-10307.015625
aF-10324.8623046875
aF-8696.046875
aF-10346.11328125
aF-10747.978515625
aF-10054.6201171875
aF-10827.767578125
aF-10971.953125
aF-11221.1484375
aF-10922.892578125
aF-10371.78515625
aF-9653.2177734375
aF-9574.052734375
aF-10231.67578125
aF-9284.9658203125
aF-12327.1142578125
aF-10719.904296875
aF-9828.4091796875
aF-9253.1044921875
aF-11542.150390625
aF-9607.3447265625
aF-8543.3212890625
aF-10373.0576171875
aF-9741.859375
aF-11175.4609375
aF-10010.3642578125
aF-9843.8701171875
aF-10908.2705078125
aF-10637.2529296875
aF-9799.9580078125
aF-9513.16015625
aF-9007.6162109375
aF-11897.1396484375
aF-9321.33984375
aF-10469.28515625
aF-9771.1923828125
aF-10141.2861328125
aF-8663.7646484375
aF-12033.79296875
aF-10345.4267578125
aF-9901.5400390625
aF-12034.771484375
aF-10565.18359375
aF-11034.810546875
aF-9974.8720703125
aF-10808.587890625
aF-9499.15625
aF-10946.0185546875
aF-9645.1865234375
aF-10474.265625
aF-11513.1396484375
aF-10962.0126953125
aF-10045.75
aF-11509.2431640625
aF-9605.6904296875
aF-9679.8896484375
aF-9895.75
aF-11332.8076171875
aF-9615.98828125
aF-10634.951171875
aF-9782.853515625
aF-9942.673828125
aF-8792.765625
aF-8755.1357421875
aF-10053.818359375
aF-10065.7119140625
aF-9850.5068359375
aF-10882.8515625
aF-9783.4326171875
aF-10549.619140625
aF-12303.43359375
aF-11054.705078125
aF-11085.16015625
aF-10480.5224609375
aF-11272.4384765625
aF-10281.0849609375
aF-9227.197265625
aF-10285.55859375
aF-8483.15234375
aF-10627.3935546875
aF-10719.6357421875
aF-11901.6875
aF-9766.2861328125
aF-9959.6552734375
aF-9732.3662109375
aF-10005.490234375
aF-10790.7548828125
aF-9497.2724609375
aF-9483.7626953125
aF-11742.9443359375
aF-9483.390625
aF-8694.4970703125
aF-11968.400390625
aF-11385.2041015625
aF-11984.2998046875
aF-8291.482421875
aF-9387.6123046875
aF-11179.130859375
aF-11094.669921875
aF-10074.02734375
aF-9831.5947265625
aF-12239.84375
aF-9210.6572265625
aF-11388.7705078125
aF-10250.9404296875
aF-10820.0751953125
aF-8899.15625
aF-10430.166015625
aF-10346.1201171875
aF-10406.822265625
aF-10219.9599609375
aF-9688.5595703125
aF-10601.24609375
aF-11694.76953125
aF-11010.326171875
aF-10387.2041015625
aF-10653.275390625
aF-10198.5849609375
aF-10026.2421875
aF-9425.6787109375
aF-9151.0498046875
aF-10149.33203125
aF-10293.712890625
aF-10321.82421875
aF-10678.2421875
aF-10736.015625
aF-9771.5361328125
aF-10517.802734375
aF-11209.78515625
aF-9001.025390625
aF-10759.294921875
aF-9923.91015625
aF-9508.599609375
aF-10700.1455078125
aF-9961.80859375
aF-11011.67578125
aF-10392.408203125
aF-10889.1337890625
aF-8796.029296875
aF-11012.130859375
aF-9981.1435546875
aF-11601.9208984375
aF-10124.4111328125
aF-8919.193359375
aF-9484.73828125
aF-10581.2001953125
aF-9856.6474609375
aF-9367.423828125
aF-10405.8251953125
aF-10015.9150390625
aF-10989.39453125
aF-10369.4072265625
aF-10128.67578125
aF-10520.833984375
aF-9991.849609375
aF-10112.025390625
aF-10668.404296875
aF-9340.9501953125
aF-11360.6611328125
aF-10835.0771484375
aF-10269.9208984375
aF-8774.9638671875
aF-10474.021484375
aF-9606.2578125
aF-10331.11328125
aF-11450.3388671875
aF-10084.349609375
aF-9415.751953125
aF-10113.1708984375
aF-9743.0576171875
aF-10717.8525390625
aF-9512.982421875
aF-11436.736328125
aF-9874.5546875
aF-9962.5009765625
aF-9695.9130859375
aF-10494.4638671875
aF-9466.9833984375
aF-9840.603515625
aF-10219.4619140625
aF-11894.4365234375
aF-9865.791015625
aF-10389.634765625
aF-10271.595703125
aF-9547.89453125
aF-11835.00390625
aF-10229.767578125
aF-9280.7685546875
aF-10056.78515625
aF-11717.19140625
aF-9955.66796875
aF-9536.66796875
aF-10112.490234375
aF-10119.25390625
aF-9726.5166015625
aF-10776.2265625
aF-10543.2880859375
aF-10737.9921875
aF-9857.7734375
aF-10413.81640625
aF-10660.65625
aF-10614.876953125
aF-9200.4150390625
aF-10573.3515625
aF-10044.419921875
aF-10402.091796875
aF-10929.30078125
aF-8537.021484375
aF-11639.4638671875
aF-11348.74609375
aF-9189.66015625
aF-10044.82421875
aF-10113.935546875
aF-10055.033203125
aF-10953.201171875
aF-9419.94921875
aF-11023.205078125
aF-11781.9697265625
aF-10237.798828125
aF-10837.3330078125
aF-11125.892578125
aF-11610.1787109375
aF-10237.9638671875
aF-11663.181640625
aF-9754.9677734375
aF-8903.65625
aF-8962.509765625
aF-10329.86328125
aF-9732.248046875
aF-11284.84375
aF-9939.7001953125
aF-9766.6171875
aF-9904.0322265625
aF-10790.7060546875
aF-11360.984375
aF-9674.3369140625
aF-9569.7822265625
aF-9567.703125
aF-9643.4951171875
aF-10055.7841796875
aF-10158.12109375
aF-10309.328125
aF-8574.640625
aF-11072.0654296875
aF-9975.33984375
aF-9858.8095703125
aF-10022.5595703125
aF-10692.4833984375
aF-10060.3505859375
aF-11076.9794921875
aF-9375.2275390625
aF-9932.2197265625
aF-9478.21484375
aF-8982.705078125
aF-8255.9404296875
aF-10598.8017578125
aF-9606.1826171875
aF-9714.1865234375
aF-10377.8369140625
aF-10669.1357421875
aF-8878.9765625
aF-10754.421875
aF-9175.0048828125
aF-10542.0498046875
aF-9436.8330078125
aF-9507.431640625
aF-9970.4697265625
aF-10638.20703125
aF-7294.48046875
aF-9825.4404296875
aF-10607.2421875
aF-9248.0322265625
aF-10080.3994140625
aF-10276.2958984375
aF-10909.3876953125
aF-10354.14453125
aF-9995.1123046875
aF-11165.390625
aF-8762.60546875
aF-10650.5546875
aF-9512.814453125
aF-9981.0107421875
aF-8750.3720703125
aF-10465.255859375
aF-11939.7255859375
aF-10099.4951171875
aF-10487.01171875
aF-11069.44140625
aF-11333.626953125
aF-10457.0517578125
aF-10428.421875
aF-10563.02734375
aF-10573.62890625
aF-9351.384765625
aF-10946.95703125
aF-10862.1513671875
aF-10348.49609375
aF-11510.3974609375
aF-11237.9619140625
aF-10923.9130859375
aF-10045.5400390625
aF-10444.5947265625
aF-10111.9599609375
aF-8804.9755859375
aF-11308.4443359375
aF-9891.5927734375
aF-10313.4794921875
aF-10363.6982421875
aF-9535.7958984375
aF-9735.865234375
aF-9627.541015625
aF-10315.728515625
aF-10119.7666015625
aF-11336.4892578125
aF-9935.0224609375
aF-9819.8916015625
aF-11336.30078125
aF-11115.2548828125
aF-11686.98828125
aF-10560.234375
aF-11533.150390625
aF-10954.8828125
aF-10960.376953125
aF-10252.4931640625
aF-10632.4091796875
aF-10385.27734375
aF-8897.14453125
aF-9432.1357421875
aF-9412.3310546875
aF-10186.1279296875
aF-11235.91015625
aF-9295.8271484375
aF-10999.0263671875
aF-12121.509765625
aF-12022.0283203125
aF-11195.5126953125
aF-8993.5947265625
aF-9404.703125
aF-8976.451171875
aF-10560.8193359375
aF-10076.1923828125
aF-9936.029296875
aF-11415.5048828125
aF-8428.09765625
aF-10587.3408203125
aF-10176.828125
aF-11239.0771484375
aF-9211.7783203125
aF-10114.0869140625
aF-10046.3173828125
aF-10442.9501953125
aF-10523.9365234375
aF-10456.71875
aF-9340.8896484375
aF-9838.005859375
aF-9234.6005859375
aF-11083.46875
aF-8443.591796875
aF-9673.20703125
aF-9081.9443359375
aF-9360.7314453125
aF-10254.958984375
aF-8742.1962890625
aF-10828.458984375
aF-10066.474609375
aF-10577.1806640625
a.