(lp1
F-17978.625
aF-17978.625
aF-17978.625
aF-17978.625
aF-17978.625
aF-17978.625
aF-17978.625
aF-17978.625
aF-17978.625
aF-17978.625
aF-17978.625
aF-17978.625
aF-17978.625
aF-17978.625
aF-17978.625
aF-17978.625
aF-17978.625
aF-17978.625
aF-17978.625
aF-17978.625
aF-17978.625
aF-17978.625
aF-17978.625
aF-17978.625
aF-17978.625
aF-17978.625
aF-17978.625
aF-17978.625
aF-17978.625
aF-17978.625
aF-17978.625
aF-17978.625
aF-17978.625
aF-17978.625
aF-17978.625
aF-17978.625
aF-17978.625
aF-17978.625
aF-17978.625
aF-17978.625
aF-17978.625
aF-17978.625
aF-17978.625
aF-17978.625
aF-17978.625
aF-17978.625
aF-17978.625
aF-17978.625
aF-17978.625
aF-17978.625
aF-17978.625
aF-17978.625
aF-17978.625
aF-17978.625
aF-17978.625
aF-17978.625
aF-17978.625
aF-17978.625
aF-17978.625
aF-17978.625
aF-17978.625
aF-17978.625
aF-17978.625
aF-17978.625
aF-17978.625
aF-17978.625
aF-17978.625
aF-17978.625
aF-17978.625
aF-17978.625
aF-17978.625
aF-17978.625
aF-17978.625
aF-17978.625
aF-17978.625
aF-17978.625
aF-17978.625
aF-17978.625
aF-17978.625
aF-17978.625
aF-17978.625
aF-17978.625
aF-17978.625
aF-17978.625
aF-17978.625
aF-17978.625
aF-17978.625
aF-17978.625
aF-17978.625
aF-17978.625
aF-17978.625
aF-17978.625
aF-17978.625
aF-17978.625
aF-17978.625
aF-17978.625
aF-17978.625
aF-17978.625
aF-17978.625
aF-17978.625
aF-17978.625
aF-17978.625
aF-17978.625
aF-17978.625
aF-17978.625
aF-17978.625
aF-17978.625
aF-17978.625
aF-17978.625
aF-17978.625
aF-17978.625
aF-17978.625
aF-17978.625
aF-17978.625
aF-17978.625
aF-17978.625
aF-17978.625
aF-17978.625
aF-17978.625
aF-17978.625
aF-17978.625
aF-17978.625
aF-17978.625
aF-17978.625
aF-17978.625
aF-17978.625
aF-17978.625
aF-17978.625
aF-17978.625
aF-17978.625
aF-17978.625
aF-17978.625
aF-17978.625
aF-17978.625
aF-17978.625
aF-17978.625
aF-17978.625
aF-17978.625
aF-17978.625
aF-17978.625
aF-17978.625
aF-17978.625
aF-17978.625
aF-17978.625
aF-17978.625
aF-17978.625
aF-17978.625
aF-17978.625
aF-17978.625
aF-17978.625
aF-17978.625
aF-17978.625
aF-17978.625
aF-17978.625
aF-17978.625
aF-17978.625
aF-17978.625
aF-17978.625
aF-17978.625
aF-17978.625
aF-17978.625
aF-17978.625
aF-17978.625
aF-17978.625
aF-17978.625
aF-17978.625
aF-17978.625
aF-17978.625
aF-17978.625
aF-17978.625
aF-17978.625
aF-17978.625
aF-17978.625
aF-17978.625
aF-17978.625
aF-17978.625
aF-17978.625
aF-17978.625
aF-17978.625
aF-17978.625
aF-17978.625
aF-17978.625
aF-17978.625
aF-17978.625
aF-17978.625
aF-17978.625
aF-17978.625
aF-17978.625
aF-17978.625
aF-17978.625
aF-17978.625
aF-17978.625
aF-17978.625
aF-17978.625
aF-17978.625
aF-17978.625
aF-17978.625
aF-17978.625
aF-17978.625
aF-17978.625
aF-17978.625
aF-17978.625
aF-17978.625
aF-17978.625
aF-17978.625
aF-17978.625
aF-17978.625
aF-17978.625
aF-17978.625
aF-17978.625
aF-17978.625
aF-17978.625
aF-17978.625
aF-17978.625
aF-17978.625
aF-17978.625
aF-17978.625
aF-17978.625
aF-17978.625
aF-17978.625
aF-17978.625
aF-17978.625
aF-17978.625
aF-17978.625
aF-17978.625
aF-17978.625
aF-17978.625
aF-17978.625
aF-17978.625
aF-17978.625
aF-17978.625
aF-17978.625
aF-17978.625
aF-17978.625
aF-17978.625
aF-17978.625
aF-17978.625
aF-17978.625
aF-17978.625
aF-17978.625
aF-17978.625
aF-17978.625
aF-17978.625
aF-17978.625
aF-17978.625
aF-17978.625
aF-17978.625
aF-17978.625
aF-17978.625
aF-17978.625
aF-17978.625
aF-17978.625
aF-17978.625
aF-17978.625
aF-17978.625
aF-17978.625
aF-17978.625
aF-17978.625
aF-17978.625
aF-17978.625
aF-17978.625
aF-17978.625
aF-17978.625
aF-17978.625
aF-17978.625
aF-17978.625
aF-17978.625
aF-17978.625
aF-17978.625
aF-17978.625
aF-17978.625
aF-17978.625
aF-17978.625
aF-17978.625
aF-17978.625
aF-17978.625
aF-17978.625
aF-17978.625
aF-17978.625
aF-17978.625
aF-17978.625
aF-17978.625
aF-17978.625
aF-17978.625
aF-17978.625
aF-17978.625
aF-17978.625
aF-17978.625
aF-17978.625
aF-17978.625
aF-17978.625
aF-17978.625
aF-17978.625
aF-17978.625
aF-17978.625
aF-17978.625
aF-17978.625
aF-17978.625
aF-17978.625
aF-17978.625
aF-17978.625
aF-17978.625
aF-17978.625
aF-17978.625
aF-17978.625
aF-17978.625
aF-17978.625
aF-17978.625
aF-17978.625
aF-17978.625
aF-17978.625
aF-17978.625
aF-17978.625
aF-17978.625
aF-17978.625
aF-17978.625
aF-17978.625
aF-17978.625
aF-17978.625
aF-17978.625
aF-17978.625
aF-17978.625
aF-17978.625
aF-17978.625
aF-17978.625
aF-17978.625
aF-17978.625
aF-17978.625
aF-17978.625
aF-17978.625
aF-17978.625
aF-17978.625
aF-17978.625
aF-17978.625
aF-17978.625
aF-17978.625
aF-17978.625
aF-17978.625
aF-17978.625
aF-17978.625
aF-17978.625
aF-17978.625
aF-17978.625
aF-17978.625
aF-17978.625
aF-17978.625
aF-17978.625
aF-17978.625
aF-17978.625
aF-17978.625
aF-17978.625
aF-17978.625
aF-17978.625
aF-17978.625
aF-17978.625
aF-17978.625
aF-17978.625
aF-17978.625
aF-17978.625
aF-17978.625
aF-17978.625
aF-17978.625
aF-17978.625
aF-17978.625
aF-17978.625
aF-17978.625
aF-17978.625
aF-17978.625
aF-17978.625
aF-17978.625
aF-17978.625
aF-17978.625
aF-17978.625
aF-17978.625
aF-17978.625
aF-17978.625
aF-17978.625
aF-17978.625
aF-17978.625
aF-17978.625
aF-17978.625
aF-17978.625
aF-17978.625
aF-17978.625
aF-17978.625
aF-17978.625
aF-17978.625
aF-17978.625
aF-17978.625
aF-17978.625
aF-17978.625
aF-17978.625
aF-17978.625
aF-17978.625
aF-17978.625
aF-17978.625
aF-17978.625
aF-17978.625
aF-17978.625
aF-17978.625
aF-17978.625
aF-17978.625
aF-17978.625
aF-17978.625
aF-17978.625
aF-17978.625
aF-17978.625
aF-17978.625
aF-17978.625
aF-17978.625
aF-17978.625
aF-17978.625
aF-17978.625
aF-17978.625
aF-17978.625
aF-17978.625
aF-17978.625
aF-17978.625
aF-17978.625
aF-17978.625
aF-17978.625
aF-17978.625
aF-17978.625
aF-17978.625
aF-17978.625
aF-17978.625
aF-17978.625
aF-17978.625
aF-17978.625
aF-17978.625
aF-17978.625
aF-17978.625
aF-17978.625
aF-17978.625
aF-17978.625
aF-17978.625
aF-17978.625
aF-17978.625
aF-17978.625
aF-17978.625
aF-17978.625
aF-17978.625
aF-17978.625
aF-17978.625
aF-17978.625
aF-17978.625
aF-17978.625
aF-17978.625
aF-17978.625
aF-17978.625
aF-17978.625
aF-17978.625
aF-17978.625
aF-17978.625
aF-17978.625
aF-17978.625
aF-17978.625
aF-17978.625
aF-17978.625
aF-17978.625
aF-17978.625
aF-17978.625
aF-17978.625
aF-17978.625
aF-17978.625
aF-17978.625
aF-17978.625
aF-17978.625
aF-17978.625
aF-17978.625
aF-17978.625
aF-17978.625
aF-17978.625
aF-17978.625
aF-17978.625
aF-17978.625
aF-17978.625
aF-17978.625
aF-17978.625
aF-17978.625
aF-17978.625
aF-17978.625
aF-17978.625
aF-17978.625
aF-17978.625
aF-17978.625
aF-17978.625
aF-17978.625
aF-17978.625
aF-17978.625
aF-17978.625
aF-17978.625
aF-17978.625
aF-17978.625
aF-17978.625
aF-17978.625
aF-17978.625
aF-17978.625
aF-17978.625
aF-17978.625
aF-17978.625
aF-17978.625
aF-17978.625
aF-17978.625
aF-17978.625
aF-17978.625
aF-17978.625
aF-17978.625
aF-17978.625
aF-17978.625
aF-17978.625
aF-17978.625
aF-17978.625
aF-17978.625
aF-17978.625
aF-17978.625
aF-17978.625
aF-17978.625
aF-17978.625
aF-17978.625
aF-17978.625
aF-17978.625
aF-17978.625
aF-17978.625
aF-17978.625
aF-17978.625
aF-17978.625
aF-17978.625
aF-17978.625
aF-17978.625
aF-17978.625
aF-17978.625
aF-17978.625
aF-17978.625
aF-17978.625
aF-17978.625
aF-17978.625
aF-17978.625
aF-17978.625
aF-17978.625
aF-17978.625
aF-17978.625
aF-17978.625
aF-17978.625
aF-17978.625
aF-17978.625
aF-17978.625
aF-17978.625
aF-17978.625
aF-17978.625
aF-17978.625
aF-17978.625
aF-17978.625
aF-17978.625
aF-17978.625
aF-17978.625
aF-17978.625
aF-17978.625
aF-17978.625
aF-17978.625
aF-17978.625
aF-17978.625
aF-17978.625
aF-17978.625
aF-17978.625
aF-17978.625
aF-17978.625
aF-17978.625
aF-17978.625
aF-17978.625
aF-17978.625
aF-17978.625
aF-17978.625
aF-17978.625
aF-17978.625
aF-17978.625
aF-17978.625
aF-17978.625
aF-17978.625
aF-17978.625
aF-17978.625
aF-17978.625
aF-17978.625
aF-17978.625
aF-17978.625
aF-17978.625
aF-17978.625
aF-17978.625
aF-17978.625
aF-17978.625
aF-17978.625
aF-17978.625
aF-17978.625
aF-17978.625
aF-17978.625
aF-17978.625
aF-17978.625
aF-17978.625
aF-17978.625
aF-17978.625
aF-17978.625
aF-17978.625
aF-17978.625
aF-17978.625
aF-17978.625
aF-17978.625
aF-17978.625
aF-17978.625
aF-17978.625
aF-17978.625
aF-17978.625
aF-17978.625
aF-17978.625
aF-17978.625
aF-17978.625
aF-17978.625
aF-17978.625
aF-17978.625
aF-17978.625
aF-17978.625
aF-17978.625
aF-17978.625
aF-17978.625
aF-17978.625
aF-17978.625
aF-17978.625
aF-17978.625
aF-17978.625
aF-17978.625
aF-17978.625
aF-17978.625
aF-17978.625
aF-17978.625
aF-17978.625
aF-17978.625
aF-17978.625
aF-17978.625
aF-17978.625
aF-17978.625
aF-17978.625
aF-17978.625
aF-17978.625
aF-17978.625
aF-17978.625
aF-17978.625
aF-17978.625
aF-17978.625
aF-17978.625
aF-17978.625
aF-17978.625
aF-17978.625
aF-17978.625
aF-17978.625
aF-17978.625
aF-17978.625
aF-17978.625
aF-17978.625
aF-17978.625
aF-17978.625
aF-17978.625
aF-17978.625
aF-17978.625
aF-17978.625
aF-17978.625
aF-17978.625
aF-17978.625
aF-17978.625
aF-17978.625
aF-17978.625
aF-17978.625
aF-17978.625
aF-17978.625
aF-17978.625
aF-17978.625
aF-17978.625
aF-17978.625
aF-17978.625
aF-17978.625
aF-17978.625
aF-17978.625
aF-17978.625
aF-17978.625
aF-17978.625
aF-17978.625
aF-17978.625
aF-17978.625
aF-17978.625
aF-17978.625
aF-17978.625
aF-17978.625
aF-17978.625
aF-17978.625
aF-17978.625
aF-17978.625
aF-17978.625
aF-17978.625
aF-17978.625
aF-17978.625
aF-17978.625
aF-17978.625
aF-17978.625
aF-17978.625
aF-17978.625
aF-17978.625
aF-17978.625
aF-17978.625
aF-17978.625
aF-17978.625
aF-17978.625
aF-17978.625
aF-17978.625
aF-17978.625
aF-17978.625
aF-17978.625
aF-17978.625
aF-17978.625
aF-17978.625
aF-17978.625
aF-17978.625
aF-17978.625
aF-17978.625
aF-17978.625
aF-17978.625
aF-17978.625
aF-17978.625
aF-17978.625
aF-17978.625
aF-17978.625
aF-17978.625
aF-17978.625
aF-17978.625
aF-17978.625
aF-17978.625
aF-17978.625
aF-17978.625
aF-17978.625
aF-17978.625
aF-17978.625
aF-17978.625
aF-17978.625
aF-17978.625
aF-17978.625
aF-17978.625
aF-17978.625
aF-17978.625
aF-17978.625
aF-17978.625
aF-17978.625
aF-17978.625
aF-17978.625
aF-17978.625
aF-17978.625
aF-17978.625
aF-17978.625
aF-17978.625
aF-17978.625
aF-17978.625
aF-17978.625
aF-17978.625
aF-17978.625
aF-17978.625
aF-17978.625
aF-17978.625
aF-17978.625
aF-17978.625
aF-17978.625
aF-17978.625
aF-17978.625
aF-17978.625
aF-17978.625
aF-17978.625
aF-17978.625
aF-17978.625
aF-17978.625
aF-17978.625
aF-17978.625
aF-17978.625
aF-17978.625
aF-17978.625
aF-17978.625
aF-17978.625
aF-17978.625
aF-17978.625
aF-17978.625
aF-17978.625
aF-17978.625
aF-17978.625
aF-17978.625
aF-17978.625
aF-17978.625
aF-17978.625
aF-17978.625
aF-17978.625
aF-17978.625
aF-17978.625
aF-17978.625
aF-17978.625
aF-17978.625
aF-17978.625
aF-17978.625
aF-17978.625
aF-17978.625
aF-17978.625
aF-17978.625
aF-17978.625
aF-17978.625
aF-17978.625
aF-17978.625
aF-17978.625
aF-17978.625
aF-17978.625
aF-17978.625
aF-17978.625
aF-17978.625
aF-17978.625
aF-17978.625
aF-17978.625
aF-17978.625
aF-17978.625
aF-17978.625
aF-17978.625
aF-17978.625
aF-17978.625
aF-17978.625
aF-17978.625
aF-17978.625
aF-17978.625
aF-17978.625
aF-17978.625
aF-17978.625
aF-17978.625
aF-17978.625
aF-17978.625
aF-17978.625
aF-17978.625
aF-17978.625
aF-17978.625
aF-17978.625
aF-17978.625
aF-17978.625
aF-17978.625
aF-17978.625
aF-17978.625
aF-17978.625
aF-17978.625
aF-17978.625
aF-17978.625
aF-17978.625
aF-17978.625
aF-17978.625
aF-17978.625
aF-17978.625
aF-17978.625
aF-17978.625
aF-17978.625
aF-17978.625
aF-17978.625
aF-17978.625
aF-17978.625
aF-17978.625
aF-17978.625
aF-17978.625
aF-17978.625
aF-17978.625
aF-17978.625
aF-17978.625
aF-17978.625
aF-17978.625
aF-17978.625
aF-17978.625
aF-17978.625
aF-17978.625
aF-17978.625
aF-17978.625
aF-17978.625
aF-17978.625
aF-17978.625
aF-17978.625
aF-17978.625
aF-17978.625
aF-17978.625
aF-17978.625
aF-17978.625
aF-17978.625
aF-17978.625
aF-17978.625
aF-17978.625
aF-17978.625
aF-17978.625
aF-17978.625
aF-17978.625
aF-17978.625
aF-17978.625
aF-17978.625
aF-17978.625
aF-17978.625
aF-17978.625
aF-17978.625
aF-17978.625
aF-17978.625
aF-17978.625
aF-17978.625
aF-17978.625
aF-17978.625
aF-17978.625
aF-17978.625
aF-17978.625
aF-17978.625
aF-17978.625
aF-17978.625
aF-17978.625
aF-17978.625
aF-17978.625
aF-17978.625
aF-17978.625
aF-17978.625
aF-17978.625
aF-17978.625
aF-17978.625
aF-17978.625
aF-17978.625
aF-17978.625
aF-17978.625
aF-17978.625
aF-17978.625
aF-17978.625
aF-17978.625
aF-17978.625
aF-17978.625
aF-17978.625
aF-17978.625
aF-17978.625
aF-17978.625
aF-17978.625
aF-17978.625
aF-17978.625
aF-17978.625
aF-17978.625
aF-17978.625
aF-17978.625
aF-17978.625
aF-17978.625
aF-17978.625
aF-17978.625
aF-17978.625
aF-17978.625
aF-17978.625
aF-17978.625
aF-17978.625
aF-17978.625
aF-17978.625
aF-17978.625
aF-17978.625
aF-17978.625
aF-17978.625
aF-17978.625
aF-17978.625
aF-17978.625
aF-17978.625
aF-17978.625
aF-17978.625
aF-17978.625
aF-17978.625
aF-17978.625
aF-17978.625
aF-17978.625
aF-17978.625
aF-17978.625
aF-17978.625
aF-17978.625
aF-17978.625
aF-17978.625
aF-17978.625
aF-17978.625
aF-17978.625
aF-17978.625
aF-17978.625
aF-17978.625
aF-17978.625
aF-17978.625
aF-17978.625
aF-17978.625
aF-17978.625
aF-17978.625
aF-17978.625
aF-17978.625
aF-17978.625
aF-17978.625
aF-17978.625
aF-17978.625
aF-17978.625
aF-17978.625
aF-17978.625
aF-17978.625
aF-17978.625
aF-17978.625
aF-17978.625
aF-17978.625
aF-17978.625
aF-17978.625
aF-17978.625
aF-17978.625
aF-17978.625
aF-17978.625
aF-17978.625
aF-17978.625
aF-17978.625
aF-17978.625
aF-17978.625
aF-17978.625
aF-17978.625
aF-17978.625
aF-17978.625
aF-17978.625
aF-17978.625
aF-17978.625
aF-17978.625
aF-17978.625
aF-17978.625
aF-17978.625
aF-17978.625
aF-17978.625
aF-17978.625
aF-17978.625
aF-17978.625
aF-17978.625
aF-17978.625
aF-17978.625
aF-17978.625
aF-17978.625
aF-17978.625
aF-17978.625
aF-17978.625
aF-17978.625
aF-17978.625
aF-17978.625
aF-17978.625
aF-17978.625
aF-17978.625
aF-17978.625
aF-17978.625
aF-17978.625
aF-17978.625
aF-17978.625
aF-17978.625
aF-17978.625
aF-17978.625
aF-17978.625
aF-17978.625
aF-17978.625
aF-17978.625
aF-17978.625
aF-17978.625
aF-17978.625
aF-17978.625
aF-17978.625
aF-17978.625
aF-17978.625
aF-17978.625
aF-17978.625
aF-17978.625
aF-17978.625
aF-17978.625
aF-17978.625
aF-17978.625
aF-17978.625
aF-17978.625
aF-17978.625
aF-17978.625
aF-17978.625
aF-17978.625
aF-17978.625
aF-17978.625
aF-17978.625
aF-17978.625
aF-17978.625
aF-17978.625
aF-17978.625
aF-17978.625
aF-17978.625
aF-17978.625
aF-17978.625
aF-17978.625
aF-17978.625
aF-17978.625
aF-17978.625
aF-17978.625
aF-17978.625
aF-17978.625
aF-17978.625
aF-17978.625
aF-17978.625
aF-17978.625
aF-17978.625
aF-17978.625
aF-17978.625
aF-17978.625
aF-17978.625
aF-17978.625
aF-17978.625
aF-17978.625
aF-17978.625
aF-17978.625
aF-17978.625
aF-17978.625
aF-17978.625
aF-17978.625
aF-17978.625
aF-17978.625
aF-17978.625
aF-17978.625
aF-17978.625
aF-17978.625
aF-17978.625
aF-17978.625
aF-17978.625
aF-17978.625
aF-17978.625
aF-17978.625
aF-17978.625
aF-17978.625
aF-17978.625
aF-17978.625
aF-17978.625
aF-17978.625
aF-17978.625
aF-17978.625
aF-17978.625
aF-17978.625
aF-17978.625
aF-17978.625
aF-17978.625
aF-17978.625
aF-17978.625
aF-17978.625
aF-17978.625
aF-17978.625
aF-17978.625
aF-17978.625
aF-17978.625
aF-17978.625
aF-17978.625
aF-17978.625
aF-17978.625
aF-17978.625
aF-17978.625
aF-17978.625
aF-17978.625
aF-17978.625
aF-17978.625
aF-17978.625
aF-17978.625
aF-17978.625
aF-17978.625
aF-17978.625
aF-17978.625
aF-17978.625
aF-17978.625
aF-17978.625
aF-17978.625
aF-17978.625
aF-17978.625
aF-17978.625
aF-17978.625
aF-17978.625
aF-17978.625
aF-17978.625
aF-17978.625
aF-17978.625
aF-17978.625
aF-17978.625
aF-17978.625
aF-17978.625
aF-17978.625
aF-17978.625
aF-17978.625
aF-17978.625
aF-17978.625
aF-17978.625
aF-17978.625
aF-17978.625
aF-17978.625
aF-17978.625
aF-17978.625
aF-17978.625
aF-17978.625
aF-17978.625
aF-17978.625
aF-17978.625
aF-17978.625
aF-17978.625
aF-17978.625
aF-17978.625
aF-17978.625
aF-17978.625
aF-17978.625
aF-17978.625
aF-17978.625
aF-17978.625
aF-17978.625
aF-17978.625
aF-17978.625
aF-17978.625
aF-17978.625
aF-17978.625
aF-17978.625
aF-17978.625
aF-17978.625
aF-17978.625
aF-17978.625
aF-17978.625
aF-17978.625
aF-17978.625
aF-17978.625
aF-17978.625
aF-17978.625
aF-17978.625
aF-17978.625
aF-17978.625
aF-17978.625
aF-17978.625
aF-17978.625
aF-17978.625
aF-17978.625
aF-17978.625
aF-17978.625
aF-17978.625
aF-17978.625
aF-17978.625
aF-17978.625
aF-17978.625
aF-17978.625
aF-17978.625
aF-17978.625
aF-17978.625
aF-17978.625
aF-17978.625
aF-17978.625
aF-17978.625
aF-17978.625
aF-17978.625
aF-17978.625
aF-17978.625
aF-17978.625
aF-17978.625
aF-17978.625
aF-17978.625
aF-17978.625
aF-17978.625
aF-17978.625
aF-17978.625
aF-17978.625
aF-17978.625
aF-17978.625
aF-17978.625
aF-17978.625
aF-17978.625
aF-17978.625
aF-17978.625
aF-17978.625
aF-17978.625
aF-17978.625
aF-17978.625
aF-17978.625
aF-17978.625
aF-17978.625
aF-17978.625
aF-17978.625
aF-17978.625
aF-17978.625
aF-17978.625
aF-17978.625
aF-17978.625
aF-17978.625
aF-17978.625
aF-17978.625
aF-17978.625
aF-17978.625
aF-17978.625
aF-17978.625
aF-17978.625
aF-17978.625
aF-17978.625
aF-17978.625
aF-17978.625
aF-17978.625
aF-17978.625
aF-17978.625
aF-17978.625
aF-17978.625
aF-17978.625
aF-17978.625
aF-17978.625
aF-17978.625
aF-17978.625
aF-17978.625
aF-17978.625
aF-17978.625
aF-17978.625
aF-17978.625
aF-17978.625
aF-17978.625
aF-17978.625
aF-17978.625
aF-17978.625
aF-17978.625
aF-17978.625
aF-17978.625
aF-17978.625
aF-17978.625
aF-17978.625
aF-17978.625
aF-17978.625
aF-17978.625
aF-17978.625
aF-17978.625
aF-17978.625
aF-17978.625
aF-17978.625
aF-17978.625
aF-17978.625
aF-17978.625
aF-17978.625
aF-17978.625
aF-17978.625
aF-17978.625
aF-17978.625
aF-17978.625
aF-17978.625
aF-17978.625
aF-17978.625
aF-17978.625
aF-17978.625
aF-17978.625
aF-17978.625
aF-17978.625
aF-17978.625
aF-17978.625
aF-17978.625
aF-17978.625
aF-17978.625
aF-17978.625
aF-17978.625
aF-17978.625
aF-17978.625
aF-17978.625
aF-17978.625
aF-17978.625
aF-17978.625
aF-17978.625
aF-17978.625
aF-17978.625
aF-17978.625
aF-17978.625
aF-17978.625
aF-17978.625
aF-17978.625
aF-17978.625
aF-17978.625
aF-17978.625
aF-17978.625
aF-17978.625
aF-17978.625
aF-17978.625
aF-17978.625
aF-17978.625
aF-17978.625
aF-17978.625
aF-17978.625
aF-17978.625
aF-17978.625
aF-17978.625
aF-17978.625
aF-17978.625
aF-17978.625
aF-17978.625
aF-17978.625
aF-17978.625
aF-17978.625
aF-17978.625
aF-17978.625
aF-17978.625
aF-17978.625
aF-17978.625
aF-17978.625
aF-17978.625
aF-17978.625
aF-17978.625
aF-17978.625
aF-17978.625
aF-17978.625
aF-17978.625
aF-17978.625
aF-17978.625
aF-17978.625
aF-17978.625
aF-17978.625
aF-17978.625
aF-17978.625
aF-17978.625
aF-17978.625
aF-17978.625
aF-17978.625
aF-17978.625
aF-17978.625
aF-17978.625
aF-17978.625
aF-17978.625
aF-17978.625
aF-17978.625
aF-17978.625
aF-17978.625
aF-17978.625
aF-17978.625
aF-17978.625
aF-17978.625
aF-17978.625
aF-17978.625
aF-17978.625
aF-17978.625
aF-17978.625
aF-17978.625
aF-17978.625
aF-17978.625
aF-17978.625
aF-17978.625
aF-17978.625
aF-17978.625
aF-17978.625
aF-17978.625
aF-17978.625
aF-17978.625
aF-17978.625
aF-17978.625
aF-17978.625
aF-17978.625
aF-17978.625
aF-17978.625
aF-17978.625
aF-17978.625
aF-17978.625
aF-17978.625
aF-17978.625
aF-17978.625
aF-17978.625
aF-17978.625
aF-17978.625
aF-17978.625
aF-17978.625
aF-17978.625
aF-17978.625
aF-17978.625
aF-17978.625
aF-17978.625
aF-17978.625
aF-17978.625
aF-17978.625
aF-17978.625
aF-17978.625
aF-17978.625
aF-17978.625
aF-17978.625
aF-17978.625
aF-17978.625
aF-17978.625
aF-17978.625
aF-17978.625
aF-17978.625
aF-17978.625
aF-17978.625
aF-17978.625
aF-17978.625
aF-17978.625
aF-17978.625
aF-17978.625
aF-17978.625
aF-17978.625
aF-17978.625
aF-17978.625
aF-17978.625
aF-17978.625
aF-17978.625
aF-17978.625
aF-17978.625
aF-17978.625
aF-17978.625
aF-17978.625
aF-17978.625
aF-17978.625
aF-17978.625
aF-17978.625
aF-17978.625
aF-17978.625
aF-17978.625
aF-17978.625
aF-17978.625
aF-17978.625
aF-17978.625
aF-17978.625
aF-17978.625
aF-17978.625
aF-17978.625
aF-17978.625
aF-17978.625
aF-17978.625
aF-17978.625
aF-17978.625
aF-17978.625
aF-17978.625
aF-17978.625
aF-17978.625
aF-17978.625
aF-17978.625
aF-17978.625
aF-17978.625
aF-17978.625
aF-17978.625
aF-17978.625
aF-17978.625
aF-17978.625
aF-17978.625
aF-17978.625
aF-17978.625
aF-17978.625
aF-17978.625
aF-17978.625
aF-17978.625
aF-17978.625
aF-17978.625
aF-17978.625
aF-17978.625
aF-17978.625
aF-17978.625
aF-17978.625
aF-17978.625
aF-17978.625
aF-17978.625
aF-17978.625
aF-17978.625
aF-17978.625
a.