(lp1
F-14771.9775390625
aF-14771.9775390625
aF-14771.9775390625
aF-14771.9775390625
aF-14771.9775390625
aF-14771.9775390625
aF-14771.9775390625
aF-14771.9775390625
aF-14771.9775390625
aF-14771.9775390625
aF-14771.9775390625
aF-14771.9775390625
aF-14771.9775390625
aF-14771.9775390625
aF-14771.9775390625
aF-14771.9775390625
aF-14771.9775390625
aF-14771.9775390625
aF-14771.9775390625
aF-14771.9775390625
aF-14771.9775390625
aF-14771.9775390625
aF-14771.9775390625
aF-14771.9775390625
aF-14771.9775390625
aF-14771.9775390625
aF-14771.9775390625
aF-14771.9775390625
aF-14771.9775390625
aF-14771.9775390625
aF-14771.9775390625
aF-14771.9775390625
aF-14771.9775390625
aF-14771.9775390625
aF-14771.9775390625
aF-14771.9775390625
aF-14771.9775390625
aF-14771.9775390625
aF-14771.9775390625
aF-14771.9775390625
aF-14771.9775390625
aF-14771.9775390625
aF-14771.9775390625
aF-14771.9775390625
aF-14771.9775390625
aF-14771.9775390625
aF-14771.9775390625
aF-14771.9775390625
aF-14771.9775390625
aF-14771.9775390625
aF-14771.9775390625
aF-14771.9775390625
aF-14771.9775390625
aF-14771.9775390625
aF-14771.9775390625
aF-14771.9775390625
aF-14771.9775390625
aF-14771.9775390625
aF-14771.9775390625
aF-14771.9775390625
aF-14771.9775390625
aF-14771.9775390625
aF-14771.9775390625
aF-14771.9775390625
aF-14771.9775390625
aF-14771.9775390625
aF-14771.9775390625
aF-14771.9775390625
aF-14771.9775390625
aF-14771.9775390625
aF-14771.9775390625
aF-14771.9775390625
aF-14771.9775390625
aF-14771.9775390625
aF-14771.9775390625
aF-14771.9775390625
aF-14771.9775390625
aF-14771.9775390625
aF-14771.9775390625
aF-14771.9775390625
aF-14771.9775390625
aF-14771.9775390625
aF-14771.9775390625
aF-14771.9775390625
aF-14771.9775390625
aF-14771.9775390625
aF-14771.9775390625
aF-14771.9775390625
aF-14771.9775390625
aF-14771.9775390625
aF-14771.9775390625
aF-14771.9775390625
aF-14771.9775390625
aF-14771.9775390625
aF-14771.9775390625
aF-14771.9775390625
aF-14771.9775390625
aF-14771.9775390625
aF-14771.9775390625
aF-14771.9775390625
aF-14771.9775390625
aF-14771.9775390625
aF-14771.9775390625
aF-14771.9775390625
aF-14771.9775390625
aF-14771.9775390625
aF-14771.9775390625
aF-14771.9775390625
aF-14771.9775390625
aF-14771.9775390625
aF-14771.9775390625
aF-14771.9775390625
aF-14771.9775390625
aF-14771.9775390625
aF-14771.9775390625
aF-14771.9775390625
aF-14771.9775390625
aF-14771.9775390625
aF-14771.9775390625
aF-14771.9775390625
aF-14771.9775390625
aF-14771.9775390625
aF-14771.9775390625
aF-14771.9775390625
aF-14771.9775390625
aF-14771.9775390625
aF-14771.9775390625
aF-14771.9775390625
aF-14771.9775390625
aF-14771.9775390625
aF-14771.9775390625
aF-14771.9775390625
aF-14771.9775390625
aF-14771.9775390625
aF-14771.9775390625
aF-14771.9775390625
aF-14771.9775390625
aF-14771.9775390625
aF-14771.9775390625
aF-14771.9775390625
aF-14771.9775390625
aF-14771.9775390625
aF-14771.9775390625
aF-14771.9775390625
aF-14771.9775390625
aF-14771.9775390625
aF-14771.9775390625
aF-14771.9775390625
aF-14771.9775390625
aF-14771.9775390625
aF-14771.9775390625
aF-14771.9775390625
aF-14771.9775390625
aF-14771.9775390625
aF-14771.9775390625
aF-14771.9775390625
aF-14771.9775390625
aF-14771.9775390625
aF-14771.9775390625
aF-14771.9775390625
aF-14771.9775390625
aF-14771.9775390625
aF-14771.9775390625
aF-14771.9775390625
aF-14771.9775390625
aF-14771.9775390625
aF-14771.9775390625
aF-14771.9775390625
aF-14771.9775390625
aF-14771.9775390625
aF-14771.9775390625
aF-14771.9775390625
aF-14771.9775390625
aF-14771.9775390625
aF-14771.9775390625
aF-14771.9775390625
aF-14771.9775390625
aF-14771.9775390625
aF-14771.9775390625
aF-14771.9775390625
aF-14771.9775390625
aF-14771.9775390625
aF-14771.9775390625
aF-14771.9775390625
aF-14771.9775390625
aF-14771.9775390625
aF-14771.9775390625
aF-14771.9775390625
aF-14771.9775390625
aF-14771.9775390625
aF-14771.9775390625
aF-14771.9775390625
aF-14771.9775390625
aF-14771.9775390625
aF-14771.9775390625
aF-14771.9775390625
aF-14771.9775390625
aF-14771.9775390625
aF-14771.9775390625
aF-14771.9775390625
aF-14771.9775390625
aF-14771.9775390625
aF-14771.9775390625
aF-14771.9775390625
aF-14771.9775390625
aF-14771.9775390625
aF-14771.9775390625
aF-14771.9775390625
aF-14771.9775390625
aF-14771.9775390625
aF-14771.9775390625
aF-14771.9775390625
aF-14771.9775390625
aF-14771.9775390625
aF-14771.9775390625
aF-14771.9775390625
aF-14771.9775390625
aF-14771.9775390625
aF-14771.9775390625
aF-14771.9775390625
aF-14771.9775390625
aF-14771.9775390625
aF-14771.9775390625
aF-14771.9775390625
aF-14771.9775390625
aF-14771.9775390625
aF-14771.9775390625
aF-14771.9775390625
aF-14771.9775390625
aF-14771.9775390625
aF-14771.9775390625
aF-14771.9775390625
aF-14771.9775390625
aF-14771.9775390625
aF-14771.9775390625
aF-14771.9775390625
aF-14771.9775390625
aF-14771.9775390625
aF-14771.9775390625
aF-14771.9775390625
aF-14771.9775390625
aF-14771.9775390625
aF-14771.9775390625
aF-14771.9775390625
aF-14771.9775390625
aF-14771.9775390625
aF-14771.9775390625
aF-14771.9775390625
aF-14771.9775390625
aF-14771.9775390625
aF-14771.9775390625
aF-14771.9775390625
aF-14771.9775390625
aF-14771.9775390625
aF-14771.9775390625
aF-14771.9775390625
aF-14771.9775390625
aF-14771.9775390625
aF-14771.9775390625
aF-14771.9775390625
aF-14771.9775390625
aF-14771.9775390625
aF-14771.9775390625
aF-14771.9775390625
aF-14771.9775390625
aF-14771.9775390625
aF-14771.9775390625
aF-14771.9775390625
aF-14771.9775390625
aF-14771.9775390625
aF-14771.9775390625
aF-14771.9775390625
aF-14771.9775390625
aF-14771.9775390625
aF-14771.9775390625
aF-14771.9775390625
aF-14771.9775390625
aF-14771.9775390625
aF-14771.9775390625
aF-14771.9775390625
aF-14771.9775390625
aF-14771.9775390625
aF-14771.9775390625
aF-14771.9775390625
aF-14771.9775390625
aF-14771.9775390625
aF-14771.9775390625
aF-14771.9775390625
aF-14771.9775390625
aF-14771.9775390625
aF-14771.9775390625
aF-14771.9775390625
aF-14771.9775390625
aF-14771.9775390625
aF-14771.9775390625
aF-14771.9775390625
aF-14771.9775390625
aF-14771.9775390625
aF-14771.9775390625
aF-14771.9775390625
aF-14771.9775390625
aF-14771.9775390625
aF-14771.9775390625
aF-14771.9775390625
aF-14771.9775390625
aF-14771.9775390625
aF-14771.9775390625
aF-14771.9775390625
aF-14771.9775390625
aF-14771.9775390625
aF-14771.9775390625
aF-14771.9775390625
aF-14771.9775390625
aF-14771.9775390625
aF-14771.9775390625
aF-14771.9775390625
aF-14771.9775390625
aF-14771.9775390625
aF-14771.9775390625
aF-14771.9775390625
aF-14771.9775390625
aF-14771.9775390625
aF-14771.9775390625
aF-14771.9775390625
aF-14771.9775390625
aF-14771.9775390625
aF-14771.9775390625
aF-14771.9775390625
aF-14771.9775390625
aF-14771.9775390625
aF-14771.9775390625
aF-14771.9775390625
aF-14771.9775390625
aF-14771.9775390625
aF-14771.9775390625
aF-14771.9775390625
aF-14771.9775390625
aF-14771.9775390625
aF-14771.9775390625
aF-14771.9775390625
aF-14771.9775390625
aF-14771.9775390625
aF-14771.9775390625
aF-14771.9775390625
aF-14771.9775390625
aF-14771.9775390625
aF-14771.9775390625
aF-14771.9775390625
aF-14771.9775390625
aF-14771.9775390625
aF-14771.9775390625
aF-14771.9775390625
aF-14771.9775390625
aF-14771.9775390625
aF-14771.9775390625
aF-14771.9775390625
aF-14771.9775390625
aF-14771.9775390625
aF-14771.9775390625
aF-14771.9775390625
aF-14771.9775390625
aF-14771.9775390625
aF-14771.9775390625
aF-14771.9775390625
aF-14771.9775390625
aF-14771.9775390625
aF-14771.9775390625
aF-14771.9775390625
aF-14771.9775390625
aF-14771.9775390625
aF-14771.9775390625
aF-14771.9775390625
aF-14771.9775390625
aF-14771.9775390625
aF-14771.9775390625
aF-14771.9775390625
aF-14771.9775390625
aF-14771.9775390625
aF-14771.9775390625
aF-14771.9775390625
aF-14771.9775390625
aF-14771.9775390625
aF-14771.9775390625
aF-14771.9775390625
aF-14771.9775390625
aF-14771.9775390625
aF-14771.9775390625
aF-14771.9775390625
aF-14771.9775390625
aF-14771.9775390625
aF-14771.9775390625
aF-14771.9775390625
aF-14771.9775390625
aF-14771.9775390625
aF-14771.9775390625
aF-14771.9775390625
aF-14771.9775390625
aF-14771.9775390625
aF-14771.9775390625
aF-14771.9775390625
aF-14771.9775390625
aF-14771.9775390625
aF-14771.9775390625
aF-14771.9775390625
aF-14771.9775390625
aF-14771.9775390625
aF-14771.9775390625
aF-14771.9775390625
aF-14771.9775390625
aF-14771.9775390625
aF-14771.9775390625
aF-14771.9775390625
aF-14771.9775390625
aF-14771.9775390625
aF-14771.9775390625
aF-14771.9775390625
aF-14771.9775390625
aF-14771.9775390625
aF-14771.9775390625
aF-14771.9775390625
aF-14771.9775390625
aF-14771.9775390625
aF-14771.9775390625
aF-14771.9775390625
aF-14771.9775390625
aF-14771.9775390625
aF-14771.9775390625
aF-14771.9775390625
aF-14771.9775390625
aF-14771.9775390625
aF-14771.9775390625
aF-14771.9775390625
aF-14771.9775390625
aF-14771.9775390625
aF-14771.9775390625
aF-14771.9775390625
aF-14771.9775390625
aF-14771.9775390625
aF-14771.9775390625
aF-14771.9775390625
aF-14771.9775390625
aF-14771.9775390625
aF-14771.9775390625
aF-14771.9775390625
aF-14771.9775390625
aF-14771.9775390625
aF-14771.9775390625
aF-14771.9775390625
aF-14771.9775390625
aF-14771.9775390625
aF-14771.9775390625
aF-14771.9775390625
aF-14771.9775390625
aF-14771.9775390625
aF-14771.9775390625
aF-14771.9775390625
aF-14771.9775390625
aF-14771.9775390625
aF-14771.9775390625
aF-14771.9775390625
aF-14771.9775390625
aF-14771.9775390625
aF-14771.9775390625
aF-14771.9775390625
aF-14771.9775390625
aF-14771.9775390625
aF-14771.9775390625
aF-14771.9775390625
aF-14771.9775390625
aF-14771.9775390625
aF-14771.9775390625
aF-14771.9775390625
aF-14771.9775390625
aF-14771.9775390625
aF-14771.9775390625
aF-14771.9775390625
aF-14771.9775390625
aF-14771.9775390625
aF-14771.9775390625
aF-14771.9775390625
aF-14771.9775390625
aF-14771.9775390625
aF-14771.9775390625
aF-14771.9775390625
aF-14771.9775390625
aF-14771.9775390625
aF-14771.9775390625
aF-14771.9775390625
aF-14771.9775390625
aF-14771.9775390625
aF-14771.9775390625
aF-14771.9775390625
aF-14771.9775390625
aF-14771.9775390625
aF-14771.9775390625
aF-14771.9775390625
aF-14771.9775390625
aF-14771.9775390625
aF-14771.9775390625
aF-14771.9775390625
aF-14771.9775390625
aF-14771.9775390625
aF-14771.9775390625
aF-14771.9775390625
aF-14771.9775390625
aF-14771.9775390625
aF-14771.9775390625
aF-14771.9775390625
aF-14771.9775390625
aF-14771.9775390625
aF-14771.9775390625
aF-14771.9775390625
aF-14771.9775390625
aF-14771.9775390625
aF-14771.9775390625
aF-14771.9775390625
aF-14771.9775390625
aF-14771.9775390625
aF-14771.9775390625
aF-14771.9775390625
aF-14771.9775390625
aF-14771.9775390625
aF-14771.9775390625
aF-14771.9775390625
aF-14771.9775390625
aF-14771.9775390625
aF-14771.9775390625
aF-14771.9775390625
aF-14771.9775390625
aF-14771.9775390625
aF-14771.9775390625
aF-14771.9775390625
aF-14771.9775390625
aF-14771.9775390625
aF-14771.9775390625
aF-14771.9775390625
aF-14771.9775390625
aF-14771.9775390625
aF-14771.9775390625
aF-14771.9775390625
aF-14771.9775390625
aF-14771.9775390625
aF-14771.9775390625
aF-14771.9775390625
aF-14771.9775390625
aF-14771.9775390625
aF-14771.9775390625
aF-14771.9775390625
aF-14771.9775390625
aF-14771.9775390625
aF-14771.9775390625
aF-14771.9775390625
aF-14771.9775390625
aF-14771.9775390625
aF-14771.9775390625
aF-14771.9775390625
aF-14771.9775390625
aF-14771.9775390625
aF-14771.9775390625
aF-14771.9775390625
aF-14771.9775390625
aF-14771.9775390625
aF-14771.9775390625
aF-14771.9775390625
aF-14771.9775390625
aF-14771.9775390625
aF-14771.9775390625
aF-14771.9775390625
aF-14771.9775390625
aF-14771.9775390625
aF-14771.9775390625
aF-14771.9775390625
aF-14771.9775390625
aF-14771.9775390625
aF-14771.9775390625
aF-14771.9775390625
aF-14771.9775390625
aF-14771.9775390625
aF-14771.9775390625
aF-14771.9775390625
aF-14771.9775390625
aF-14771.9775390625
aF-14771.9775390625
aF-14771.9775390625
aF-14771.9775390625
aF-14771.9775390625
aF-14771.9775390625
aF-14771.9775390625
aF-14771.9775390625
aF-14771.9775390625
aF-14771.9775390625
aF-14771.9775390625
aF-14771.9775390625
aF-14771.9775390625
aF-14771.9775390625
aF-14771.9775390625
aF-14771.9775390625
aF-14771.9775390625
aF-14771.9775390625
aF-14771.9775390625
aF-14771.9775390625
aF-14771.9775390625
aF-14771.9775390625
aF-14771.9775390625
aF-14771.9775390625
aF-14771.9775390625
aF-14771.9775390625
aF-14771.9775390625
aF-14771.9775390625
aF-14771.9775390625
aF-14771.9775390625
aF-14771.9775390625
aF-14771.9775390625
aF-14771.9775390625
aF-14771.9775390625
aF-14771.9775390625
aF-14771.9775390625
aF-14771.9775390625
aF-14771.9775390625
aF-14771.9775390625
aF-14771.9775390625
aF-14771.9775390625
aF-14771.9775390625
aF-14771.9775390625
aF-14771.9775390625
aF-14771.9775390625
aF-14771.9775390625
aF-14771.9775390625
aF-14771.9775390625
aF-14771.9775390625
aF-14771.9775390625
aF-14771.9775390625
aF-14771.9775390625
aF-14771.9775390625
aF-14771.9775390625
aF-14771.9775390625
aF-14771.9775390625
aF-14771.9775390625
aF-14771.9775390625
aF-14771.9775390625
aF-14771.9775390625
aF-14771.9775390625
aF-14771.9775390625
aF-14771.9775390625
aF-14771.9775390625
aF-14771.9775390625
aF-14771.9775390625
aF-14771.9775390625
aF-14771.9775390625
aF-14771.9775390625
aF-14771.9775390625
aF-14771.9775390625
aF-14771.9775390625
aF-14771.9775390625
aF-14771.9775390625
aF-14771.9775390625
aF-14771.9775390625
aF-14771.9775390625
aF-14771.9775390625
aF-14771.9775390625
aF-14771.9775390625
aF-14771.9775390625
aF-14771.9775390625
aF-14771.9775390625
aF-14771.9775390625
aF-14771.9775390625
aF-14771.9775390625
aF-14771.9775390625
aF-14771.9775390625
aF-14771.9775390625
aF-14771.9775390625
aF-14771.9775390625
aF-14771.9775390625
aF-14771.9775390625
aF-14771.9775390625
aF-14771.9775390625
aF-14771.9775390625
aF-14771.9775390625
aF-14771.9775390625
aF-14771.9775390625
aF-14771.9775390625
aF-14771.9775390625
aF-14771.9775390625
aF-14771.9775390625
aF-14771.9775390625
aF-14771.9775390625
aF-14771.9775390625
aF-14771.9775390625
aF-14771.9775390625
aF-14771.9775390625
aF-14771.9775390625
aF-14771.9775390625
aF-14771.9775390625
aF-14771.9775390625
aF-14771.9775390625
aF-14771.9775390625
aF-14771.9775390625
aF-14771.9775390625
aF-14771.9775390625
aF-14771.9775390625
aF-14771.9775390625
aF-14771.9775390625
aF-14771.9775390625
aF-14771.9775390625
aF-14771.9775390625
aF-14771.9775390625
aF-14771.9775390625
aF-14771.9775390625
aF-14771.9775390625
aF-14771.9775390625
aF-14771.9775390625
aF-14771.9775390625
aF-14771.9775390625
aF-14771.9775390625
aF-14771.9775390625
aF-14771.9775390625
aF-14771.9775390625
aF-14771.9775390625
aF-14771.9775390625
aF-14771.9775390625
aF-14771.9775390625
aF-14771.9775390625
aF-14771.9775390625
aF-14771.9775390625
aF-14771.9775390625
aF-14771.9775390625
aF-14771.9775390625
aF-14771.9775390625
aF-14771.9775390625
aF-14771.9775390625
aF-14771.9775390625
aF-14771.9775390625
aF-14771.9775390625
aF-14771.9775390625
aF-14771.9775390625
aF-14771.9775390625
aF-14771.9775390625
aF-14771.9775390625
aF-14771.9775390625
aF-14771.9775390625
aF-14771.9775390625
aF-14771.9775390625
aF-14771.9775390625
aF-14771.9775390625
aF-14771.9775390625
aF-14771.9775390625
aF-14771.9775390625
aF-14771.9775390625
aF-14771.9775390625
aF-14771.9775390625
aF-14771.9775390625
aF-14771.9775390625
aF-14771.9775390625
aF-14771.9775390625
aF-14771.9775390625
aF-14771.9775390625
aF-14771.9775390625
aF-14771.9775390625
aF-14771.9775390625
aF-14771.9775390625
aF-14771.9775390625
aF-14771.9775390625
aF-14771.9775390625
aF-14771.9775390625
aF-14771.9775390625
aF-14771.9775390625
aF-14771.9775390625
aF-14771.9775390625
aF-14771.9775390625
aF-14771.9775390625
aF-14771.9775390625
aF-14771.9775390625
aF-14771.9775390625
aF-14771.9775390625
aF-14771.9775390625
aF-14771.9775390625
aF-14771.9775390625
aF-14771.9775390625
aF-14771.9775390625
aF-14771.9775390625
aF-14771.9775390625
aF-14771.9775390625
aF-14771.9775390625
aF-14771.9775390625
aF-14771.9775390625
aF-14771.9775390625
aF-14771.9775390625
aF-14771.9775390625
aF-14771.9775390625
aF-14771.9775390625
aF-14771.9775390625
aF-14771.9775390625
aF-14771.9775390625
aF-14771.9775390625
aF-14771.9775390625
aF-14771.9775390625
aF-14771.9775390625
aF-14771.9775390625
aF-14771.9775390625
aF-14771.9775390625
aF-14771.9775390625
aF-14771.9775390625
aF-14771.9775390625
aF-14771.9775390625
aF-14771.9775390625
aF-14771.9775390625
aF-14771.9775390625
aF-14771.9775390625
aF-14771.9775390625
aF-14771.9775390625
aF-14771.9775390625
aF-14771.9775390625
aF-14771.9775390625
aF-14771.9775390625
aF-14771.9775390625
aF-14771.9775390625
aF-14771.9775390625
aF-14771.9775390625
aF-14771.9775390625
aF-14771.9775390625
aF-14771.9775390625
aF-14771.9775390625
aF-14771.9775390625
aF-14771.9775390625
aF-14771.9775390625
aF-14771.9775390625
aF-14771.9775390625
aF-14771.9775390625
aF-14771.9775390625
aF-14771.9775390625
aF-14771.9775390625
aF-14771.9775390625
aF-14771.9775390625
aF-14771.9775390625
aF-14771.9775390625
aF-14771.9775390625
aF-14771.9775390625
aF-14771.9775390625
aF-14771.9775390625
aF-14771.9775390625
aF-14771.9775390625
aF-14771.9775390625
aF-14771.9775390625
aF-14771.9775390625
aF-14771.9775390625
aF-14771.9775390625
aF-14771.9775390625
aF-14771.9775390625
aF-14771.9775390625
aF-14771.9775390625
aF-14771.9775390625
aF-14771.9775390625
aF-14771.9775390625
aF-14771.9775390625
aF-14771.9775390625
aF-14771.9775390625
aF-14771.9775390625
aF-14771.9775390625
aF-14771.9775390625
aF-14771.9775390625
aF-14771.9775390625
aF-14771.9775390625
aF-14771.9775390625
aF-14771.9775390625
aF-14771.9775390625
aF-14771.9775390625
aF-14771.9775390625
aF-14771.9775390625
aF-14771.9775390625
aF-14771.9775390625
aF-14771.9775390625
aF-14771.9775390625
aF-14771.9775390625
aF-14771.9775390625
aF-14771.9775390625
aF-14771.9775390625
aF-14771.9775390625
aF-14771.9775390625
aF-14771.9775390625
aF-14771.9775390625
aF-14771.9775390625
aF-14771.9775390625
aF-14771.9775390625
aF-14771.9775390625
aF-14771.9775390625
aF-14771.9775390625
aF-14771.9775390625
aF-14771.9775390625
aF-14771.9775390625
aF-14771.9775390625
aF-14771.9775390625
aF-14771.9775390625
aF-14771.9775390625
aF-14771.9775390625
aF-14771.9775390625
aF-14771.9775390625
aF-14771.9775390625
aF-14771.9775390625
aF-14771.9775390625
aF-14771.9775390625
aF-14771.9775390625
aF-14771.9775390625
aF-14771.9775390625
aF-14771.9775390625
aF-14771.9775390625
aF-14771.9775390625
aF-14771.9775390625
aF-14771.9775390625
aF-14771.9775390625
aF-14771.9775390625
aF-14771.9775390625
aF-14771.9775390625
aF-14771.9775390625
aF-14771.9775390625
aF-14771.9775390625
aF-14771.9775390625
aF-14771.9775390625
aF-14771.9775390625
aF-14771.9775390625
aF-14771.9775390625
aF-14771.9775390625
aF-14771.9775390625
aF-14771.9775390625
aF-14771.9775390625
aF-14771.9775390625
aF-14771.9775390625
aF-14771.9775390625
aF-14771.9775390625
aF-14771.9775390625
aF-14771.9775390625
aF-14771.9775390625
aF-14771.9775390625
aF-14771.9775390625
aF-14771.9775390625
aF-14771.9775390625
aF-14771.9775390625
aF-14771.9775390625
aF-14771.9775390625
aF-14771.9775390625
aF-14771.9775390625
aF-14771.9775390625
aF-14771.9775390625
aF-14771.9775390625
aF-14771.9775390625
aF-14771.9775390625
aF-14771.9775390625
aF-14771.9775390625
aF-14771.9775390625
aF-14771.9775390625
aF-14771.9775390625
aF-14771.9775390625
aF-14771.9775390625
aF-14771.9775390625
aF-14771.9775390625
aF-14771.9775390625
aF-14771.9775390625
aF-14771.9775390625
aF-14771.9775390625
aF-14771.9775390625
aF-14771.9775390625
aF-14771.9775390625
aF-14771.9775390625
aF-14771.9775390625
aF-14771.9775390625
aF-14771.9775390625
aF-14771.9775390625
aF-14771.9775390625
aF-14771.9775390625
aF-14771.9775390625
aF-14771.9775390625
aF-14771.9775390625
aF-14771.9775390625
aF-14771.9775390625
aF-14771.9775390625
aF-14771.9775390625
aF-14771.9775390625
aF-14771.9775390625
aF-14771.9775390625
aF-14771.9775390625
aF-14771.9775390625
aF-14771.9775390625
aF-14771.9775390625
aF-14771.9775390625
aF-14771.9775390625
aF-14771.9775390625
aF-14771.9775390625
aF-14771.9775390625
aF-14771.9775390625
aF-14771.9775390625
aF-14771.9775390625
aF-14771.9775390625
aF-14771.9775390625
aF-14771.9775390625
aF-14771.9775390625
aF-14771.9775390625
aF-14771.9775390625
aF-14771.9775390625
aF-14771.9775390625
aF-14771.9775390625
aF-14771.9775390625
aF-14771.9775390625
aF-14771.9775390625
aF-14771.9775390625
aF-14771.9775390625
aF-14771.9775390625
aF-14771.9775390625
aF-14771.9775390625
aF-14771.9775390625
aF-14771.9775390625
aF-14771.9775390625
aF-14771.9775390625
aF-14771.9775390625
aF-14771.9775390625
aF-14771.9775390625
aF-14771.9775390625
aF-14771.9775390625
aF-14771.9775390625
aF-14771.9775390625
aF-14771.9775390625
aF-14771.9775390625
aF-14771.9775390625
aF-14771.9775390625
aF-14771.9775390625
aF-14771.9775390625
aF-14771.9775390625
aF-14771.9775390625
aF-14771.9775390625
aF-14771.9775390625
aF-14771.9775390625
aF-14771.9775390625
aF-14771.9775390625
aF-14771.9775390625
aF-14771.9775390625
aF-14771.9775390625
aF-14771.9775390625
aF-14771.9775390625
aF-14771.9775390625
aF-14771.9775390625
aF-14771.9775390625
aF-14771.9775390625
aF-14771.9775390625
aF-14771.9775390625
aF-14771.9775390625
aF-14771.9775390625
aF-14771.9775390625
aF-14771.9775390625
aF-14771.9775390625
aF-14771.9775390625
aF-14771.9775390625
aF-14771.9775390625
aF-14771.9775390625
aF-14771.9775390625
aF-14771.9775390625
aF-14771.9775390625
aF-14771.9775390625
aF-14771.9775390625
aF-14771.9775390625
aF-14771.9775390625
aF-14771.9775390625
aF-14771.9775390625
aF-14771.9775390625
aF-14771.9775390625
aF-14771.9775390625
aF-14771.9775390625
aF-14771.9775390625
aF-14771.9775390625
aF-14771.9775390625
aF-14771.9775390625
aF-14771.9775390625
aF-14771.9775390625
aF-14771.9775390625
aF-14771.9775390625
aF-14771.9775390625
aF-14771.9775390625
aF-14771.9775390625
aF-14771.9775390625
aF-14771.9775390625
aF-14771.9775390625
aF-14771.9775390625
aF-14771.9775390625
aF-14771.9775390625
aF-14771.9775390625
aF-14771.9775390625
aF-14771.9775390625
aF-14771.9775390625
aF-14771.9775390625
aF-14771.9775390625
aF-14771.9775390625
aF-14771.9775390625
aF-14771.9775390625
aF-14771.9775390625
aF-14771.9775390625
aF-14771.9775390625
aF-14771.9775390625
aF-14771.9775390625
aF-14771.9775390625
aF-14771.9775390625
aF-14771.9775390625
aF-14771.9775390625
aF-14771.9775390625
aF-14771.9775390625
aF-14771.9775390625
aF-14771.9775390625
aF-14771.9775390625
aF-14771.9775390625
aF-14771.9775390625
aF-14771.9775390625
aF-14771.9775390625
aF-14771.9775390625
aF-14771.9775390625
aF-14771.9775390625
aF-14771.9775390625
aF-14771.9775390625
aF-14771.9775390625
aF-14771.9775390625
aF-14771.9775390625
aF-14771.9775390625
aF-14771.9775390625
aF-14771.9775390625
aF-14771.9775390625
aF-14771.9775390625
aF-14771.9775390625
aF-14771.9775390625
aF-14771.9775390625
aF-14771.9775390625
aF-14771.9775390625
aF-14771.9775390625
aF-14771.9775390625
aF-14771.9775390625
aF-14771.9775390625
aF-14771.9775390625
aF-14771.9775390625
aF-14771.9775390625
aF-14771.9775390625
aF-14771.9775390625
aF-14771.9775390625
aF-14771.9775390625
aF-14771.9775390625
aF-14771.9775390625
aF-14771.9775390625
aF-14771.9775390625
aF-14771.9775390625
aF-14771.9775390625
aF-14771.9775390625
aF-14771.9775390625
aF-14771.9775390625
aF-14771.9775390625
aF-14771.9775390625
aF-14771.9775390625
aF-14771.9775390625
aF-14771.9775390625
aF-14771.9775390625
aF-14771.9775390625
aF-14771.9775390625
aF-14771.9775390625
aF-14771.9775390625
aF-14771.9775390625
aF-14771.9775390625
aF-14771.9775390625
aF-14771.9775390625
aF-14771.9775390625
aF-14771.9775390625
aF-14771.9775390625
aF-14771.9775390625
aF-14771.9775390625
aF-14771.9775390625
aF-14771.9775390625
aF-14771.9775390625
aF-14771.9775390625
aF-14771.9775390625
aF-14771.9775390625
aF-14771.9775390625
aF-14771.9775390625
aF-14771.9775390625
aF-14771.9775390625
aF-14771.9775390625
aF-14771.9775390625
aF-14771.9775390625
aF-14771.9775390625
aF-14771.9775390625
aF-14771.9775390625
aF-14771.9775390625
aF-14771.9775390625
aF-14771.9775390625
aF-14771.9775390625
aF-14771.9775390625
aF-14771.9775390625
aF-14771.9775390625
aF-14771.9775390625
aF-14771.9775390625
aF-14771.9775390625
aF-14771.9775390625
aF-14771.9775390625
aF-14771.9775390625
aF-14771.9775390625
aF-14771.9775390625
aF-14771.9775390625
aF-14771.9775390625
aF-14771.9775390625
aF-14771.9775390625
aF-14771.9775390625
aF-14771.9775390625
aF-14771.9775390625
aF-14771.9775390625
aF-14771.9775390625
aF-14771.9775390625
aF-14771.9775390625
aF-14771.9775390625
aF-14771.9775390625
aF-14771.9775390625
aF-14771.9775390625
aF-14771.9775390625
aF-14771.9775390625
aF-14771.9775390625
aF-14771.9775390625
aF-14771.9775390625
aF-14771.9775390625
aF-14771.9775390625
aF-14771.9775390625
aF-14771.9775390625
aF-14771.9775390625
aF-14771.9775390625
aF-14771.9775390625
aF-14771.9775390625
aF-14771.9775390625
aF-14771.9775390625
aF-14771.9775390625
aF-14771.9775390625
aF-14771.9775390625
aF-14771.9775390625
aF-14771.9775390625
aF-14771.9775390625
aF-14771.9775390625
aF-14771.9775390625
aF-14771.9775390625
aF-14771.9775390625
aF-14771.9775390625
aF-14771.9775390625
aF-14771.9775390625
aF-14771.9775390625
aF-14771.9775390625
aF-14771.9775390625
aF-14771.9775390625
aF-14771.9775390625
aF-14771.9775390625
aF-14771.9775390625
aF-14771.9775390625
aF-14771.9775390625
aF-14771.9775390625
aF-14771.9775390625
aF-14771.9775390625
aF-14771.9775390625
aF-14771.9775390625
aF-14771.9775390625
aF-14771.9775390625
aF-14771.9775390625
aF-14771.9775390625
aF-14771.9775390625
aF-14771.9775390625
aF-14771.9775390625
aF-14771.9775390625
aF-14771.9775390625
aF-14771.9775390625
aF-14771.9775390625
aF-14771.9775390625
aF-14771.9775390625
aF-14771.9775390625
aF-14771.9775390625
aF-14771.9775390625
aF-14771.9775390625
aF-14771.9775390625
aF-14771.9775390625
aF-14771.9775390625
aF-14771.9775390625
aF-14771.9775390625
aF-14771.9775390625
aF-14771.9775390625
aF-14771.9775390625
aF-14771.9775390625
aF-14771.9775390625
aF-14771.9775390625
aF-14771.9775390625
aF-14771.9775390625
aF-14771.9775390625
aF-14771.9775390625
aF-14771.9775390625
aF-14771.9775390625
aF-14771.9775390625
aF-14771.9775390625
aF-14771.9775390625
aF-14771.9775390625
aF-14771.9775390625
aF-14771.9775390625
aF-14771.9775390625
aF-14771.9775390625
aF-14771.9775390625
aF-14771.9775390625
aF-14771.9775390625
aF-14771.9775390625
aF-14771.9775390625
aF-14771.9775390625
aF-14771.9775390625
aF-14771.9775390625
aF-14771.9775390625
aF-14771.9775390625
aF-14771.9775390625
aF-14771.9775390625
aF-14771.9775390625
aF-14771.9775390625
aF-14771.9775390625
aF-14771.9775390625
aF-14771.9775390625
aF-14771.9775390625
aF-14771.9775390625
aF-14771.9775390625
aF-14771.9775390625
aF-14771.9775390625
aF-14771.9775390625
aF-14771.9775390625
aF-14771.9775390625
aF-14771.9775390625
aF-14771.9775390625
aF-14771.9775390625
aF-14771.9775390625
aF-14771.9775390625
aF-14771.9775390625
aF-14771.9775390625
aF-14771.9775390625
aF-14771.9775390625
aF-14771.9775390625
aF-14771.9775390625
aF-14771.9775390625
aF-14771.9775390625
aF-14771.9775390625
aF-14771.9775390625
aF-14771.9775390625
aF-14771.9775390625
aF-14771.9775390625
aF-14771.9775390625
aF-14771.9775390625
aF-14771.9775390625
aF-14771.9775390625
aF-14771.9775390625
aF-14771.9775390625
aF-14771.9775390625
aF-14771.9775390625
aF-14771.9775390625
aF-14771.9775390625
aF-14771.9775390625
aF-14771.9775390625
aF-14771.9775390625
aF-14771.9775390625
aF-14771.9775390625
aF-14771.9775390625
aF-14771.9775390625
aF-14771.9775390625
aF-14771.9775390625
aF-14771.9775390625
aF-14771.9775390625
aF-14771.9775390625
aF-14771.9775390625
aF-14771.9775390625
aF-14771.9775390625
aF-14771.9775390625
aF-14771.9775390625
aF-14771.9775390625
aF-14771.9775390625
aF-14771.9775390625
aF-14771.9775390625
aF-14771.9775390625
aF-14771.9775390625
aF-14771.9775390625
aF-14771.9775390625
aF-14771.9775390625
aF-14771.9775390625
aF-14771.9775390625
aF-14771.9775390625
aF-14771.9775390625
aF-14771.9775390625
aF-14771.9775390625
aF-14771.9775390625
aF-14771.9775390625
aF-14771.9775390625
aF-14771.9775390625
aF-14771.9775390625
aF-14771.9775390625
aF-14771.9775390625
aF-14771.9775390625
aF-14771.9775390625
aF-14771.9775390625
aF-14771.9775390625
aF-14771.9775390625
aF-14771.9775390625
aF-14771.9775390625
aF-14771.9775390625
aF-14771.9775390625
aF-14771.9775390625
aF-14771.9775390625
aF-14771.9775390625
aF-14771.9775390625
aF-14771.9775390625
aF-14771.9775390625
aF-14771.9775390625
aF-14771.9775390625
aF-14771.9775390625
aF-14771.9775390625
aF-14771.9775390625
aF-14771.9775390625
aF-14771.9775390625
aF-14771.9775390625
aF-14771.9775390625
aF-14771.9775390625
aF-14771.9775390625
aF-14771.9775390625
aF-14771.9775390625
aF-14771.9775390625
aF-14771.9775390625
aF-14771.9775390625
aF-14771.9775390625
aF-14771.9775390625
aF-14771.9775390625
aF-14771.9775390625
aF-14771.9775390625
aF-14771.9775390625
aF-14771.9775390625
aF-14771.9775390625
aF-14771.9775390625
aF-14771.9775390625
aF-14771.9775390625
aF-14771.9775390625
aF-14771.9775390625
aF-14771.9775390625
aF-14771.9775390625
aF-14771.9775390625
aF-14771.9775390625
aF-14771.9775390625
aF-14771.9775390625
aF-14771.9775390625
aF-14771.9775390625
aF-14771.9775390625
aF-14771.9775390625
aF-14771.9775390625
aF-14771.9775390625
aF-14771.9775390625
aF-14771.9775390625
aF-14771.9775390625
aF-14771.9775390625
aF-14771.9775390625
aF-14771.9775390625
aF-14771.9775390625
aF-14771.9775390625
aF-14771.9775390625
aF-14771.9775390625
aF-14771.9775390625
aF-14771.9775390625
aF-14771.9775390625
aF-14771.9775390625
aF-14771.9775390625
aF-14771.9775390625
aF-14771.9775390625
aF-14771.9775390625
aF-14771.9775390625
aF-14771.9775390625
aF-14771.9775390625
aF-14771.9775390625
aF-14771.9775390625
aF-14771.9775390625
aF-14771.9775390625
aF-14771.9775390625
aF-14771.9775390625
aF-14771.9775390625
aF-14771.9775390625
aF-14771.9775390625
aF-14771.9775390625
aF-14771.9775390625
aF-14771.9775390625
aF-14771.9775390625
aF-14771.9775390625
aF-14771.9775390625
aF-14771.9775390625
aF-14771.9775390625
aF-14771.9775390625
aF-14771.9775390625
aF-14771.9775390625
aF-14771.9775390625
aF-14771.9775390625
aF-14771.9775390625
aF-14771.9775390625
aF-14771.9775390625
aF-14771.9775390625
aF-14771.9775390625
aF-14771.9775390625
aF-14771.9775390625
aF-14771.9775390625
aF-14771.9775390625
aF-14771.9775390625
aF-14771.9775390625
aF-14771.9775390625
aF-14771.9775390625
aF-14771.9775390625
aF-14771.9775390625
aF-14771.9775390625
aF-14771.9775390625
aF-14771.9775390625
aF-14771.9775390625
aF-14771.9775390625
aF-14771.9775390625
aF-14771.9775390625
aF-14771.9775390625
aF-14771.9775390625
aF-14771.9775390625
aF-14771.9775390625
aF-14771.9775390625
aF-14771.9775390625
aF-14771.9775390625
aF-14771.9775390625
aF-14771.9775390625
aF-14771.9775390625
aF-14771.9775390625
aF-14771.9775390625
aF-14771.9775390625
aF-14771.9775390625
aF-14771.9775390625
aF-14771.9775390625
aF-14771.9775390625
aF-14771.9775390625
aF-14771.9775390625
aF-14771.9775390625
aF-14771.9775390625
aF-14771.9775390625
aF-14771.9775390625
aF-14771.9775390625
aF-14771.9775390625
aF-14771.9775390625
aF-14771.9775390625
aF-14771.9775390625
aF-14771.9775390625
aF-14771.9775390625
aF-14771.9775390625
aF-14771.9775390625
a.