(lp1
F-9831.5625
aF-9831.5625
aF-9831.5625
aF-9831.5625
aF-9831.5625
aF-9831.5625
aF-9831.5625
aF-9831.5625
aF-9831.5625
aF-9831.5625
aF-9831.5625
aF-9831.5625
aF-9831.5625
aF-9831.5625
aF-9831.5625
aF-9831.5625
aF-9831.5625
aF-9831.5625
aF-9831.5625
aF-9831.5625
aF-9831.5625
aF-9831.5625
aF-9831.5625
aF-9831.5625
aF-9831.5625
aF-9831.5625
aF-9831.5625
aF-9831.5625
aF-9831.5625
aF-9831.5625
aF-9831.5625
aF-9831.5625
aF-9831.5625
aF-9831.5625
aF-9831.5625
aF-9831.5625
aF-9831.5625
aF-9831.5625
aF-9831.5625
aF-9831.5625
aF-9831.5625
aF-9831.5625
aF-9831.5625
aF-9831.5625
aF-9831.5625
aF-9831.5625
aF-9831.5625
aF-9831.5625
aF-9831.5625
aF-9831.5625
aF-9831.5625
aF-9831.5625
aF-9831.5625
aF-9831.5625
aF-9831.5625
aF-9831.5625
aF-9831.5625
aF-9831.5625
aF-9831.5625
aF-9831.5625
aF-9831.5625
aF-9831.5625
aF-9831.5625
aF-9831.5625
aF-9831.5625
aF-9831.5625
aF-9831.5625
aF-9831.5625
aF-9831.5625
aF-9831.5625
aF-9831.5625
aF-9831.5625
aF-9831.5625
aF-9831.5625
aF-9831.5625
aF-9831.5625
aF-9831.5625
aF-9831.5625
aF-9831.5625
aF-9831.5625
aF-9831.5625
aF-9831.5625
aF-9831.5625
aF-9831.5625
aF-9831.5625
aF-9831.5625
aF-9831.5625
aF-9831.5625
aF-9831.5625
aF-9831.5625
aF-9831.5625
aF-9831.5625
aF-9831.5625
aF-9831.5625
aF-9831.5625
aF-9831.5625
aF-9831.5625
aF-9831.5625
aF-9831.5625
aF-9831.5625
aF-9831.5625
aF-9831.5625
aF-9831.5625
aF-9831.5625
aF-9831.5625
aF-9831.5625
aF-9831.5625
aF-9831.5625
aF-9831.5625
aF-9831.5625
aF-9831.5625
aF-9831.5625
aF-9831.5625
aF-9831.5625
aF-9831.5625
aF-9831.5625
aF-9831.5625
aF-9831.5625
aF-9831.5625
aF-9831.5625
aF-9831.5625
aF-9831.5625
aF-9831.5625
aF-9831.5625
aF-9831.5625
aF-9831.5625
aF-9831.5625
aF-9831.5625
aF-9831.5625
aF-9831.5625
aF-9831.5625
aF-9831.5625
aF-9831.5625
aF-9831.5625
aF-9831.5625
aF-9831.5625
aF-9831.5625
aF-9831.5625
aF-9831.5625
aF-9831.5625
aF-9831.5625
aF-9831.5625
aF-9831.5625
aF-9831.5625
aF-9831.5625
aF-9831.5625
aF-9831.5625
aF-9831.5625
aF-9831.5625
aF-9831.5625
aF-9831.5625
aF-9831.5625
aF-9831.5625
aF-9831.5625
aF-9831.5625
aF-9831.5625
aF-9831.5625
aF-9831.5625
aF-9831.5625
aF-9831.5625
aF-9831.5625
aF-9831.5625
aF-9831.5625
aF-9831.5625
aF-9831.5625
aF-9831.5625
aF-9831.5625
aF-9831.5625
aF-9831.5625
aF-9831.5625
aF-9831.5625
aF-9831.5625
aF-9831.5625
aF-9831.5625
aF-9831.5625
aF-9831.5625
aF-9831.5625
aF-9831.5625
aF-9831.5625
aF-9831.5625
aF-9831.5625
aF-9831.5625
aF-9831.5625
aF-9831.5625
aF-9831.5625
aF-9831.5625
aF-9831.5625
aF-9831.5625
aF-9831.5625
aF-9831.5625
aF-9831.5625
aF-9831.5625
aF-9831.5625
aF-9831.5625
aF-9831.5625
aF-9831.5625
aF-9831.5625
aF-9831.5625
aF-9831.5625
aF-9831.5625
aF-9831.5625
aF-9831.5625
aF-9831.5625
aF-9831.5625
aF-9831.5625
aF-9831.5625
aF-9831.5625
aF-9831.5625
aF-9831.5625
aF-9831.5625
aF-9831.5625
aF-9831.5625
aF-9831.5625
aF-9831.5625
aF-9831.5625
aF-9831.5625
aF-9831.5625
aF-9831.5625
aF-9831.5625
aF-9831.5625
aF-9831.5625
aF-9831.5625
aF-9831.5625
aF-9831.5625
aF-9831.5625
aF-9831.5625
aF-9831.5625
aF-9831.5625
aF-9831.5625
aF-9831.5625
aF-9831.5625
aF-9831.5625
aF-9831.5625
aF-9831.5625
aF-9831.5625
aF-9831.5625
aF-9831.5625
aF-9831.5625
aF-9831.5625
aF-9831.5625
aF-9831.5625
aF-9831.5625
aF-9831.5625
aF-9831.5625
aF-9831.5625
aF-9831.5625
aF-9831.5625
aF-9831.5625
aF-9831.5625
aF-9831.5625
aF-9831.5625
aF-9831.5625
aF-9831.5625
aF-9831.5625
aF-9831.5625
aF-9831.5625
aF-9831.5625
aF-9831.5625
aF-9831.5625
aF-9831.5625
aF-9831.5625
aF-9831.5625
aF-9831.5625
aF-9831.5625
aF-9831.5625
aF-9831.5625
aF-9831.5625
aF-9831.5625
aF-9831.5625
aF-9831.5625
aF-9831.5625
aF-9831.5625
aF-9831.5625
aF-9831.5625
aF-9831.5625
aF-9831.5625
aF-9831.5625
aF-9831.5625
aF-9831.5625
aF-9831.5625
aF-9831.5625
aF-9831.5625
aF-9831.5625
aF-9831.5625
aF-9831.5625
aF-9831.5625
aF-9831.5625
aF-9831.5625
aF-9831.5625
aF-9831.5625
aF-9831.5625
aF-9831.5625
aF-9831.5625
aF-9831.5625
aF-9831.5625
aF-9831.5625
aF-9831.5625
aF-9831.5625
aF-9831.5625
aF-9831.5625
aF-9831.5625
aF-9831.5625
aF-9831.5625
aF-9831.5625
aF-9831.5625
aF-9831.5625
aF-9831.5625
aF-9831.5625
aF-9831.5625
aF-9831.5625
aF-9831.5625
aF-9831.5625
aF-9831.5625
aF-9831.5625
aF-9831.5625
aF-9831.5625
aF-9831.5625
aF-9831.5625
aF-9831.5625
aF-9831.5625
aF-9831.5625
aF-9831.5625
aF-9831.5625
aF-9831.5625
aF-9831.5625
aF-9831.5625
aF-9831.5625
aF-9831.5625
aF-9831.5625
aF-9831.5625
aF-9831.5625
aF-9831.5625
aF-9831.5625
aF-9831.5625
aF-9831.5625
aF-9831.5625
aF-9831.5625
aF-9831.5625
aF-9831.5625
aF-9831.5625
aF-9831.5625
aF-9831.5625
aF-9831.5625
aF-9831.5625
aF-9831.5625
aF-9831.5625
aF-9831.5625
aF-9831.5625
aF-9831.5625
aF-9831.5625
aF-9831.5625
aF-9831.5625
aF-9831.5625
aF-9831.5625
aF-9831.5625
aF-9831.5625
aF-9831.5625
aF-9831.5625
aF-9831.5625
aF-9831.5625
aF-9831.5625
aF-9831.5625
aF-9831.5625
aF-9831.5625
aF-9831.5625
aF-9831.5625
aF-9831.5625
aF-9831.5625
aF-9831.5625
aF-9831.5625
aF-9831.5625
aF-9831.5625
aF-9831.5625
aF-9831.5625
aF-9831.5625
aF-9831.5625
aF-9831.5625
aF-9831.5625
aF-9831.5625
aF-9831.5625
aF-9831.5625
aF-9831.5625
aF-9831.5625
aF-9831.5625
aF-9831.5625
aF-9831.5625
aF-9831.5625
aF-9831.5625
aF-9831.5625
aF-9831.5625
aF-9831.5625
aF-9831.5625
aF-9831.5625
aF-9831.5625
aF-9831.5625
aF-9831.5625
aF-9831.5625
aF-9831.5625
aF-9831.5625
aF-9831.5625
aF-9831.5625
aF-9831.5625
aF-9831.5625
aF-9831.5625
aF-9831.5625
aF-9831.5625
aF-9831.5625
aF-9831.5625
aF-9831.5625
aF-9831.5625
aF-9831.5625
aF-9831.5625
aF-9831.5625
aF-9831.5625
aF-9831.5625
aF-9831.5625
aF-9831.5625
aF-9831.5625
aF-9831.5625
aF-9831.5625
aF-9831.5625
aF-9831.5625
aF-9831.5625
aF-9831.5625
aF-9831.5625
aF-9831.5625
aF-9831.5625
aF-9831.5625
aF-9831.5625
aF-9831.5625
aF-9831.5625
aF-9831.5625
aF-9831.5625
aF-9831.5625
aF-9831.5625
aF-9831.5625
aF-9831.5625
aF-9831.5625
aF-9831.5625
aF-9831.5625
aF-9831.5625
aF-9831.5625
aF-9831.5625
aF-9831.5625
aF-9831.5625
aF-9831.5625
aF-9831.5625
aF-9831.5625
aF-9831.5625
aF-9831.5625
aF-9831.5625
aF-9831.5625
aF-9831.5625
aF-9831.5625
aF-9831.5625
aF-9831.5625
aF-9831.5625
aF-9831.5625
aF-9831.5625
aF-9831.5625
aF-9831.5625
aF-9831.5625
aF-9831.5625
aF-9831.5625
aF-9831.5625
aF-9831.5625
aF-9831.5625
aF-9831.5625
aF-9831.5625
aF-9831.5625
aF-9831.5625
aF-9831.5625
aF-9831.5625
aF-9831.5625
aF-9831.5625
aF-9831.5625
aF-9831.5625
aF-9831.5625
aF-9831.5625
aF-9831.5625
aF-9831.5625
aF-9831.5625
aF-9831.5625
aF-9831.5625
aF-9831.5625
aF-9831.5625
aF-9831.5625
aF-9831.5625
aF-9831.5625
aF-9831.5625
aF-9831.5625
aF-9831.5625
aF-9831.5625
aF-9831.5625
aF-9831.5625
aF-9831.5625
aF-9831.5625
aF-9831.5625
aF-9831.5625
aF-9831.5625
aF-9831.5625
aF-9831.5625
aF-9831.5625
aF-9831.5625
aF-9831.5625
aF-9831.5625
aF-9831.5625
aF-9831.5625
aF-9831.5625
aF-9831.5625
aF-9831.5625
aF-9831.5625
aF-9831.5625
aF-9831.5625
aF-9831.5625
aF-9831.5625
aF-9831.5625
aF-9831.5625
aF-9831.5625
aF-9831.5625
aF-9831.5625
aF-9831.5625
aF-9831.5625
aF-9831.5625
aF-9831.5625
aF-9831.5625
aF-9831.5625
aF-9831.5625
aF-9831.5625
aF-9831.5625
aF-9831.5625
aF-9831.5625
aF-9831.5625
aF-9831.5625
aF-9831.5625
aF-9831.5625
aF-9831.5625
aF-9831.5625
aF-9831.5625
aF-9831.5625
aF-9831.5625
aF-9831.5625
aF-9831.5625
aF-9831.5625
aF-9831.5625
aF-9831.5625
aF-9831.5625
aF-9831.5625
aF-9831.5625
aF-9831.5625
aF-9831.5625
aF-9831.5625
aF-9831.5625
aF-9831.5625
aF-9831.5625
aF-9831.5625
aF-9831.5625
aF-9831.5625
aF-9831.5625
aF-9831.5625
aF-9831.5625
aF-9831.5625
aF-9831.5625
aF-9831.5625
aF-9831.5625
aF-9831.5625
aF-9831.5625
aF-9831.5625
aF-9831.5625
aF-9831.5625
aF-9831.5625
aF-9831.5625
aF-9831.5625
aF-9831.5625
aF-9831.5625
aF-9831.5625
aF-9831.5625
aF-9831.5625
aF-9831.5625
aF-9831.5625
aF-9831.5625
aF-9831.5625
aF-9831.5625
aF-9831.5625
aF-9831.5625
aF-9831.5625
aF-9831.5625
aF-9831.5625
aF-9831.5625
aF-9831.5625
aF-9831.5625
aF-9831.5625
aF-9831.5625
aF-9831.5625
aF-9831.5625
aF-9831.5625
aF-9831.5625
aF-9831.5625
aF-9831.5625
aF-9831.5625
aF-9831.5625
aF-9831.5625
aF-9831.5625
aF-9831.5625
aF-9831.5625
aF-9831.5625
aF-9831.5625
aF-9831.5625
aF-9831.5625
aF-9831.5625
aF-9831.5625
aF-9831.5625
aF-9831.5625
aF-9831.5625
aF-9831.5625
aF-9831.5625
aF-9831.5625
aF-9831.5625
aF-9831.5625
aF-9831.5625
aF-9831.5625
aF-9831.5625
aF-9831.5625
aF-9831.5625
aF-9831.5625
aF-9831.5625
aF-9831.5625
aF-9831.5625
aF-9831.5625
aF-9831.5625
aF-9831.5625
aF-9831.5625
aF-9831.5625
aF-9831.5625
aF-9831.5625
aF-9831.5625
aF-9831.5625
aF-9831.5625
aF-9831.5625
aF-9831.5625
aF-9831.5625
aF-9831.5625
aF-9831.5625
aF-9831.5625
aF-9831.5625
aF-9831.5625
aF-9831.5625
aF-9831.5625
aF-9831.5625
aF-9831.5625
aF-9831.5625
aF-9831.5625
aF-9831.5625
aF-9831.5625
aF-9831.5625
aF-9831.5625
aF-9831.5625
aF-9831.5625
aF-9831.5625
aF-9831.5625
aF-9831.5625
aF-9831.5625
aF-9831.5625
aF-9831.5625
aF-9831.5625
aF-9831.5625
aF-9831.5625
aF-9831.5625
aF-9831.5625
aF-9831.5625
aF-9831.5625
aF-9831.5625
aF-9831.5625
aF-9831.5625
aF-9831.5625
aF-9831.5625
aF-9831.5625
aF-9831.5625
aF-9831.5625
aF-9831.5625
aF-9831.5625
aF-9831.5625
aF-9831.5625
aF-9831.5625
aF-9831.5625
aF-9831.5625
aF-9831.5625
aF-9831.5625
aF-9831.5625
aF-9831.5625
aF-9831.5625
aF-9831.5625
aF-9831.5625
aF-9831.5625
aF-9831.5625
aF-9831.5625
aF-9831.5625
aF-9831.5625
aF-9831.5625
aF-9831.5625
aF-9831.5625
aF-9831.5625
aF-9831.5625
aF-9831.5625
aF-9831.5625
aF-9831.5625
aF-9831.5625
aF-9831.5625
aF-9831.5625
aF-9831.5625
aF-9831.5625
aF-9831.5625
aF-9831.5625
aF-9831.5625
aF-9831.5625
aF-9831.5625
aF-9831.5625
aF-9831.5625
aF-9831.5625
aF-9831.5625
aF-9831.5625
aF-9831.5625
aF-9831.5625
aF-9831.5625
aF-9831.5625
aF-9831.5625
aF-9831.5625
aF-9831.5625
aF-9831.5625
aF-9831.5625
aF-9831.5625
aF-9831.5625
aF-9831.5625
aF-9831.5625
aF-9831.5625
aF-9831.5625
aF-9831.5625
aF-9831.5625
aF-9831.5625
aF-9831.5625
aF-9831.5625
aF-9831.5625
aF-9831.5625
aF-9831.5625
aF-9831.5625
aF-9831.5625
aF-9831.5625
aF-9831.5625
aF-9831.5625
aF-9831.5625
aF-9831.5625
aF-9831.5625
aF-9831.5625
aF-9831.5625
aF-9831.5625
aF-9831.5625
aF-9831.5625
aF-9831.5625
aF-9831.5625
aF-9831.5625
aF-9831.5625
aF-9831.5625
aF-9831.5625
aF-9831.5625
aF-9831.5625
aF-9831.5625
aF-9831.5625
aF-9831.5625
aF-9831.5625
aF-9831.5625
aF-9831.5625
aF-9831.5625
aF-9831.5625
aF-9831.5625
aF-9831.5625
aF-9831.5625
aF-9831.5625
aF-9831.5625
aF-9831.5625
aF-9831.5625
aF-9831.5625
aF-9831.5625
aF-9831.5625
aF-9831.5625
aF-9831.5625
aF-9831.5625
aF-9831.5625
aF-9831.5625
aF-9831.5625
aF-9831.5625
aF-9831.5625
aF-9831.5625
aF-9831.5625
aF-9831.5625
aF-9831.5625
aF-9831.5625
aF-9831.5625
aF-9831.5625
aF-9831.5625
aF-9831.5625
aF-9831.5625
aF-9831.5625
aF-9831.5625
aF-9831.5625
aF-9831.5625
aF-9831.5625
aF-9831.5625
aF-9831.5625
aF-9831.5625
aF-9831.5625
aF-9831.5625
aF-9831.5625
aF-9831.5625
aF-9831.5625
aF-9831.5625
aF-9831.5625
aF-9831.5625
aF-9831.5625
aF-9831.5625
aF-9831.5625
aF-9831.5625
aF-9831.5625
aF-9831.5625
aF-9831.5625
aF-9831.5625
aF-9831.5625
aF-9831.5625
aF-9831.5625
aF-9831.5625
aF-9831.5625
aF-9831.5625
aF-9831.5625
aF-9831.5625
aF-9831.5625
aF-9831.5625
aF-9831.5625
aF-9831.5625
aF-9831.5625
aF-9831.5625
aF-9831.5625
aF-9831.5625
aF-9831.5625
aF-9831.5625
aF-9831.5625
aF-9831.5625
aF-9831.5625
aF-9831.5625
aF-9831.5625
aF-9831.5625
aF-9831.5625
aF-9831.5625
aF-9831.5625
aF-9831.5625
aF-9831.5625
aF-9831.5625
aF-9831.5625
aF-9831.5625
aF-9831.5625
aF-9831.5625
aF-9831.5625
aF-9831.5625
aF-9831.5625
aF-9831.5625
aF-9831.5625
aF-9831.5625
aF-9831.5625
aF-9831.5625
aF-9831.5625
aF-9831.5625
aF-9831.5625
aF-9831.5625
aF-9831.5625
aF-9831.5625
aF-9831.5625
aF-9831.5625
aF-9831.5625
aF-9831.5625
aF-9831.5625
aF-9831.5625
aF-9831.5625
aF-9831.5625
aF-9831.5625
aF-9831.5625
aF-9831.5625
aF-9831.5625
aF-9831.5625
aF-9831.5625
aF-9831.5625
aF-9831.5625
aF-9831.5625
aF-9831.5625
aF-9831.5625
aF-9831.5625
aF-9831.5625
aF-9831.5625
aF-9831.5625
aF-9831.5625
aF-9831.5625
aF-9831.5625
aF-9831.5625
aF-9831.5625
aF-9831.5625
aF-9831.5625
aF-9831.5625
aF-9831.5625
aF-9831.5625
aF-9831.5625
aF-9831.5625
aF-9831.5625
aF-9831.5625
aF-9831.5625
aF-9831.5625
aF-9831.5625
aF-9831.5625
aF-9831.5625
aF-9831.5625
aF-9831.5625
aF-9831.5625
aF-9831.5625
aF-9831.5625
aF-9831.5625
aF-9831.5625
aF-9831.5625
aF-9831.5625
aF-9831.5625
aF-9831.5625
aF-9831.5625
aF-9831.5625
aF-9831.5625
aF-9831.5625
aF-9831.5625
aF-9831.5625
aF-9831.5625
aF-9831.5625
aF-9831.5625
aF-9831.5625
aF-9831.5625
aF-9831.5625
aF-9831.5625
aF-9831.5625
aF-9831.5625
aF-9831.5625
aF-9831.5625
aF-9831.5625
aF-9831.5625
aF-9831.5625
aF-9831.5625
aF-9831.5625
aF-9831.5625
aF-9831.5625
aF-9831.5625
aF-9831.5625
aF-9831.5625
aF-9831.5625
aF-9831.5625
aF-9831.5625
aF-9831.5625
aF-9831.5625
aF-9831.5625
aF-9831.5625
aF-9831.5625
aF-9831.5625
aF-9831.5625
aF-9831.5625
aF-9831.5625
aF-9831.5625
aF-9831.5625
aF-9831.5625
aF-9831.5625
aF-9831.5625
aF-9831.5625
aF-9831.5625
aF-9831.5625
aF-9831.5625
aF-9831.5625
aF-9831.5625
aF-9831.5625
aF-9831.5625
aF-9831.5625
aF-9831.5625
aF-9831.5625
aF-9831.5625
aF-9831.5625
aF-9831.5625
aF-9831.5625
aF-9831.5625
aF-9831.5625
aF-9831.5625
aF-9831.5625
aF-9831.5625
aF-9831.5625
aF-9831.5625
aF-9831.5625
aF-9831.5625
aF-9831.5625
aF-9831.5625
aF-9831.5625
aF-9831.5625
aF-9831.5625
aF-9831.5625
aF-9831.5625
aF-9831.5625
aF-9831.5625
aF-9831.5625
aF-9831.5625
aF-9831.5625
aF-9831.5625
aF-9831.5625
aF-9831.5625
aF-9831.5625
aF-9831.5625
aF-9831.5625
aF-9831.5625
aF-9831.5625
aF-9831.5625
aF-9831.5625
aF-9831.5625
aF-9831.5625
aF-9831.5625
aF-9831.5625
aF-9831.5625
aF-9831.5625
aF-9831.5625
aF-9831.5625
aF-9831.5625
aF-9831.5625
aF-9831.5625
aF-9831.5625
aF-9831.5625
aF-9831.5625
aF-9831.5625
aF-9831.5625
aF-9831.5625
aF-9831.5625
aF-9831.5625
aF-9831.5625
aF-9831.5625
aF-9831.5625
aF-9831.5625
aF-9831.5625
aF-9831.5625
aF-9831.5625
aF-9831.5625
aF-9831.5625
aF-9831.5625
aF-9831.5625
aF-9831.5625
aF-9831.5625
aF-9831.5625
aF-9831.5625
aF-9831.5625
aF-9831.5625
aF-9831.5625
aF-9831.5625
aF-9831.5625
aF-9831.5625
aF-9831.5625
aF-9831.5625
aF-9831.5625
aF-9831.5625
aF-9831.5625
aF-9831.5625
aF-9831.5625
aF-9831.5625
aF-9831.5625
aF-9831.5625
aF-9831.5625
aF-9831.5625
aF-9831.5625
aF-9831.5625
aF-9831.5625
aF-9831.5625
aF-9831.5625
aF-9831.5625
aF-9831.5625
aF-9831.5625
aF-9831.5625
aF-9831.5625
aF-9831.5625
aF-9831.5625
aF-9831.5625
aF-9831.5625
aF-9831.5625
aF-9831.5625
aF-9831.5625
aF-9831.5625
aF-9831.5625
aF-9831.5625
aF-9831.5625
aF-9831.5625
aF-9831.5625
aF-9831.5625
aF-9831.5625
aF-9831.5625
aF-9831.5625
aF-9831.5625
aF-9831.5625
aF-9831.5625
aF-9831.5625
aF-9831.5625
aF-9831.5625
aF-9831.5625
aF-9831.5625
aF-9831.5625
aF-9831.5625
aF-9831.5625
aF-9831.5625
aF-9831.5625
aF-9831.5625
aF-9831.5625
aF-9831.5625
aF-9831.5625
aF-9831.5625
aF-9831.5625
aF-9831.5625
aF-9831.5625
aF-9831.5625
aF-9831.5625
aF-9831.5625
aF-9831.5625
aF-9831.5625
aF-9831.5625
aF-9831.5625
aF-9831.5625
aF-9831.5625
aF-9831.5625
aF-9831.5625
aF-9831.5625
aF-9831.5625
aF-9831.5625
aF-9831.5625
aF-9831.5625
aF-9831.5625
aF-9831.5625
aF-9831.5625
aF-9831.5625
aF-9831.5625
aF-9831.5625
aF-9831.5625
aF-9831.5625
aF-9831.5625
aF-9831.5625
aF-9831.5625
aF-9831.5625
aF-9831.5625
aF-9831.5625
aF-9831.5625
aF-9831.5625
aF-9831.5625
aF-9831.5625
aF-9831.5625
aF-9831.5625
aF-9831.5625
aF-9831.5625
aF-9831.5625
aF-9831.5625
aF-9831.5625
aF-9831.5625
aF-9831.5625
aF-9831.5625
aF-9831.5625
aF-9831.5625
aF-9831.5625
aF-9831.5625
aF-9831.5625
aF-9831.5625
aF-9831.5625
aF-9831.5625
aF-9831.5625
aF-9831.5625
aF-9831.5625
aF-9831.5625
aF-9831.5625
aF-9831.5625
aF-9831.5625
aF-9831.5625
aF-9831.5625
aF-9831.5625
aF-9831.5625
aF-9831.5625
aF-9831.5625
aF-9831.5625
aF-9831.5625
aF-9831.5625
aF-9831.5625
aF-9831.5625
aF-9831.5625
aF-9831.5625
aF-9831.5625
aF-9831.5625
aF-9831.5625
aF-9831.5625
aF-9831.5625
aF-9831.5625
aF-9831.5625
aF-9831.5625
aF-9831.5625
aF-9831.5625
aF-9831.5625
aF-9831.5625
aF-9831.5625
aF-9831.5625
aF-9831.5625
aF-9831.5625
aF-9831.5625
aF-9831.5625
aF-9831.5625
aF-9831.5625
aF-9831.5625
aF-9831.5625
aF-9831.5625
aF-9831.5625
aF-9831.5625
aF-9831.5625
aF-9831.5625
aF-9831.5625
aF-9831.5625
aF-9831.5625
aF-9831.5625
aF-9831.5625
aF-9831.5625
aF-9831.5625
aF-9831.5625
aF-9831.5625
aF-9831.5625
aF-9831.5625
aF-9831.5625
aF-9831.5625
aF-9831.5625
aF-9831.5625
aF-9831.5625
aF-9831.5625
aF-9831.5625
aF-9831.5625
aF-9831.5625
aF-9831.5625
aF-9831.5625
aF-9831.5625
aF-9831.5625
aF-9831.5625
aF-9831.5625
aF-9831.5625
aF-9831.5625
aF-9831.5625
aF-9831.5625
aF-9831.5625
aF-9831.5625
aF-9831.5625
aF-9831.5625
aF-9831.5625
aF-9831.5625
aF-9831.5625
aF-9831.5625
aF-9831.5625
aF-9831.5625
aF-9831.5625
aF-9831.5625
aF-9831.5625
aF-9831.5625
aF-9831.5625
aF-9831.5625
aF-9831.5625
aF-9831.5625
aF-9831.5625
aF-9831.5625
aF-9831.5625
aF-9831.5625
aF-9831.5625
aF-9831.5625
aF-9831.5625
aF-9831.5625
aF-9831.5625
aF-9831.5625
aF-9831.5625
aF-9831.5625
aF-9831.5625
aF-9831.5625
aF-9831.5625
aF-9831.5625
aF-9831.5625
aF-9831.5625
aF-9831.5625
aF-9831.5625
aF-9831.5625
aF-9831.5625
aF-9831.5625
aF-9831.5625
aF-9831.5625
aF-9831.5625
aF-9831.5625
aF-9831.5625
aF-9831.5625
aF-9831.5625
aF-9831.5625
aF-9831.5625
aF-9831.5625
aF-9831.5625
aF-9831.5625
aF-9831.5625
aF-9831.5625
aF-9831.5625
aF-9831.5625
aF-9831.5625
aF-9831.5625
aF-9831.5625
aF-9831.5625
aF-9831.5625
aF-9831.5625
aF-9831.5625
aF-9831.5625
aF-9831.5625
aF-9831.5625
aF-9831.5625
aF-9831.5625
aF-9831.5625
aF-9831.5625
aF-9831.5625
aF-9831.5625
aF-9831.5625
aF-9831.5625
aF-9831.5625
aF-9831.5625
aF-9831.5625
aF-9831.5625
aF-9831.5625
aF-9831.5625
aF-9831.5625
aF-9831.5625
aF-9831.5625
aF-9831.5625
aF-9831.5625
aF-9831.5625
aF-9831.5625
aF-9831.5625
aF-9831.5625
aF-9831.5625
aF-9831.5625
aF-9831.5625
aF-9831.5625
aF-9831.5625
aF-9831.5625
aF-9831.5625
aF-9831.5625
aF-9831.5625
aF-9831.5625
aF-9831.5625
aF-9831.5625
aF-9831.5625
aF-9831.5625
aF-9831.5625
aF-9831.5625
aF-9831.5625
aF-9831.5625
aF-9831.5625
aF-9831.5625
aF-9831.5625
aF-9831.5625
aF-9831.5625
aF-9831.5625
aF-9831.5625
aF-9831.5625
aF-9831.5625
aF-9831.5625
aF-9831.5625
aF-9831.5625
aF-9831.5625
aF-9831.5625
aF-9831.5625
aF-9831.5625
aF-9831.5625
aF-9831.5625
aF-9831.5625
aF-9831.5625
aF-9831.5625
aF-9831.5625
aF-9831.5625
aF-9831.5625
aF-9831.5625
aF-9831.5625
aF-9831.5625
aF-9831.5625
aF-9831.5625
aF-9831.5625
aF-9831.5625
aF-9831.5625
aF-9831.5625
aF-9831.5625
aF-9831.5625
aF-9831.5625
aF-9831.5625
aF-9831.5625
aF-9831.5625
aF-9831.5625
aF-9831.5625
aF-9831.5625
aF-9831.5625
aF-9831.5625
aF-9831.5625
aF-9831.5625
aF-9831.5625
aF-9831.5625
aF-9831.5625
aF-9831.5625
aF-9831.5625
aF-9831.5625
aF-9831.5625
aF-9831.5625
aF-9831.5625
aF-9831.5625
aF-9831.5625
aF-9831.5625
aF-9831.5625
aF-9831.5625
aF-9831.5625
aF-9831.5625
aF-9831.5625
aF-9831.5625
aF-9831.5625
aF-9831.5625
aF-9831.5625
aF-9831.5625
aF-9831.5625
aF-9831.5625
aF-9831.5625
aF-9831.5625
aF-9831.5625
aF-9831.5625
aF-9831.5625
aF-9831.5625
aF-9831.5625
aF-9831.5625
aF-9831.5625
aF-9831.5625
aF-9831.5625
aF-9831.5625
aF-9831.5625
aF-9831.5625
aF-9831.5625
aF-9831.5625
aF-9831.5625
aF-9831.5625
aF-9831.5625
aF-9831.5625
aF-9831.5625
aF-9831.5625
aF-9831.5625
aF-9831.5625
aF-9831.5625
aF-9831.5625
aF-9831.5625
aF-9831.5625
aF-9831.5625
aF-9831.5625
aF-9831.5625
aF-9831.5625
aF-9831.5625
aF-9831.5625
aF-9831.5625
aF-9831.5625
aF-9831.5625
aF-9831.5625
aF-9831.5625
aF-9831.5625
aF-9831.5625
aF-9831.5625
aF-9831.5625
aF-9831.5625
aF-9831.5625
aF-9831.5625
aF-9831.5625
aF-9831.5625
aF-9831.5625
aF-9831.5625
aF-9831.5625
aF-9831.5625
aF-9831.5625
aF-9831.5625
aF-9831.5625
aF-9831.5625
aF-9831.5625
aF-9831.5625
aF-9831.5625
aF-9831.5625
aF-9831.5625
aF-9831.5625
aF-9831.5625
aF-9831.5625
aF-9831.5625
aF-9831.5625
aF-9831.5625
aF-9831.5625
aF-9831.5625
aF-9831.5625
aF-9831.5625
aF-9831.5625
aF-9831.5625
aF-9831.5625
aF-9831.5625
aF-9831.5625
aF-9831.5625
aF-9831.5625
aF-9831.5625
aF-9831.5625
aF-9831.5625
aF-9831.5625
aF-9831.5625
aF-9831.5625
aF-9831.5625
aF-9831.5625
aF-9831.5625
aF-9831.5625
aF-9831.5625
aF-9831.5625
aF-9831.5625
aF-9831.5625
aF-9831.5625
aF-9831.5625
aF-9831.5625
aF-9831.5625
aF-9831.5625
aF-9831.5625
aF-9831.5625
aF-9831.5625
aF-9831.5625
aF-9831.5625
aF-9831.5625
aF-9831.5625
aF-9831.5625
aF-9831.5625
aF-9831.5625
aF-9831.5625
aF-9831.5625
aF-9831.5625
aF-9831.5625
aF-9831.5625
aF-9831.5625
aF-9831.5625
aF-9831.5625
aF-9831.5625
aF-9831.5625
a.