(lp1
F-8704.2431640625
aF-8922.14453125
aF-10675.6787109375
aF-9663.95703125
aF-9195.33203125
aF-8872.150390625
aF-9595.056640625
aF-9128.0087890625
aF-10344.1103515625
aF-10551.9052734375
aF-10100.65234375
aF-10143.65625
aF-8420.22265625
aF-10356.259765625
aF-10211.1865234375
aF-11483.4072265625
aF-10320.7646484375
aF-9668.1787109375
aF-10191.208984375
aF-9755.52734375
aF-10578.5185546875
aF-8767.72265625
aF-9164.8291015625
aF-9856.3857421875
aF-9727.2392578125
aF-9541.2958984375
aF-10343.7041015625
aF-10632.33984375
aF-10414.3310546875
aF-11087.9443359375
aF-10344.5068359375
aF-11034.3642578125
aF-9103.3466796875
aF-10647.6689453125
aF-10359.3515625
aF-10351.51953125
aF-9948.5849609375
aF-9849.7294921875
aF-10078.650390625
aF-9818.5673828125
aF-9796.6220703125
aF-9725.9619140625
aF-10030.9921875
aF-10213.798828125
aF-9957.8955078125
aF-8842.4658203125
aF-8561.2626953125
aF-9090.2275390625
aF-9989.2412109375
aF-10930.115234375
aF-9386.51171875
aF-9212.669921875
aF-10776.9375
aF-9144.5419921875
aF-8487.953125
aF-9430.0732421875
aF-9074.861328125
aF-8944.09375
aF-9538.001953125
aF-9559.3896484375
aF-8524.3798828125
aF-8598.71875
aF-9265.537109375
aF-9091.2880859375
aF-9426.1728515625
aF-8573.171875
aF-8800.40625
aF-9136.4482421875
aF-9373.4072265625
aF-9545.4091796875
aF-9276.1201171875
aF-9424.81640625
aF-8334.96484375
aF-7880.23291015625
aF-8184.44775390625
aF-7964.46240234375
aF-7869.6533203125
aF-8177.4775390625
aF-7386.7060546875
aF-8273.330078125
aF-9015.1806640625
aF-8615.23046875
aF-8535.8017578125
aF-8760.220703125
aF-7615.8056640625
aF-7375.7294921875
aF-8682.2900390625
aF-7913.04345703125
aF-8499.5537109375
aF-7954.10546875
aF-8397.447265625
aF-8748.408203125
aF-7596.935546875
aF-8462.3310546875
aF-7994.89453125
aF-7181.00537109375
aF-7508.45751953125
aF-7855.2236328125
aF-8392.4892578125
aF-7860.84326171875
aF-8292.712890625
aF-7641.486328125
aF-7618.1328125
aF-7901.3583984375
aF-8125.0224609375
aF-7225.90380859375
aF-7298.541015625
aF-7579.96337890625
aF-7354.66357421875
aF-7568.75537109375
aF-8161.5966796875
aF-7462.8994140625
aF-7501.99609375
aF-7924.8251953125
aF-8495.9189453125
aF-8223.396484375
aF-7681.142578125
aF-7608.3603515625
aF-7518.9423828125
aF-8286.3046875
aF-7706.3828125
aF-7550.10595703125
aF-7883.4892578125
aF-8154.07568359375
aF-7679.080078125
aF-7999.802734375
aF-8255.16796875
aF-8962.078125
aF-8754.1748046875
aF-8180.0693359375
aF-8344.6015625
aF-8965.50390625
aF-8444.66015625
aF-8532.4306640625
aF-8537.36328125
aF-8300.4658203125
aF-7642.3125
aF-7859.10302734375
aF-8142.72021484375
aF-8011.443359375
aF-7318.3857421875
aF-7881.47216796875
aF-9174.94921875
aF-9508.9921875
aF-9343.8388671875
aF-9661.6640625
aF-9406.2177734375
aF-9039.623046875
aF-9068.9921875
aF-9519.333984375
aF-9226.6982421875
aF-8720.2724609375
aF-9024.1865234375
aF-8907.408203125
aF-8862.328125
aF-9312.9404296875
aF-8994.3251953125
aF-8537.4033203125
aF-8799.4248046875
aF-8667.5732421875
aF-9258.708984375
aF-8865.005859375
aF-8774.341796875
aF-9328.4521484375
aF-9885.41015625
aF-9008.587890625
aF-9248.798828125
aF-9978.416015625
aF-9354.501953125
aF-9652.7158203125
aF-9151.6689453125
aF-9286.8564453125
aF-9784.62109375
aF-9469.01953125
aF-9795.7275390625
aF-9566.4619140625
aF-10081.744140625
aF-9371.4462890625
aF-9738.79296875
aF-9053.4345703125
aF-9377.9951171875
aF-9189.3857421875
aF-9308.314453125
aF-9313.7265625
aF-8861.0986328125
aF-8212.296875
aF-8840.0283203125
aF-8731.763671875
aF-8972.9482421875
aF-8980.681640625
aF-9141.7568359375
aF-8979.7861328125
aF-8420.01171875
aF-8697.5947265625
aF-9156.947265625
aF-9223.0556640625
aF-9293.900390625
aF-9246.7802734375
aF-9636.9794921875
aF-9158.9833984375
aF-9431.751953125
aF-9415.701171875
aF-9039.91796875
aF-9290.908203125
aF-9842.119140625
aF-9665.5546875
aF-9806.3857421875
aF-9329.8095703125
aF-9501.7861328125
aF-9083.650390625
aF-9392.8984375
aF-9118.1005859375
aF-9337.0185546875
aF-9114.837890625
aF-9320.138671875
aF-8583.4306640625
aF-8772.1201171875
aF-8915.8857421875
aF-8714.6279296875
aF-8996.841796875
aF-8488.0390625
aF-8453.18359375
aF-8418.376953125
aF-8236.28125
aF-8673.0068359375
aF-8705.353515625
aF-8881.1669921875
aF-8964.083984375
aF-9026.078125
aF-8500.435546875
aF-8662.705078125
aF-9055.2841796875
aF-8966.208984375
aF-8642.0478515625
aF-8649.068359375
aF-9088.2158203125
aF-9601.091796875
aF-9287.205078125
aF-9332.490234375
aF-9294.0361328125
aF-9818.841796875
aF-9533.44921875
aF-9952.0107421875
aF-9600.1533203125
aF-9547.19921875
aF-8776.7880859375
aF-8840.43359375
aF-9045.01171875
aF-9257.1943359375
aF-9002.62890625
aF-9509.640625
aF-9790.1318359375
aF-9427.3251953125
aF-9543.484375
aF-9484.365234375
aF-9213.814453125
aF-9316.845703125
aF-9010.87109375
aF-9466.7021484375
aF-9506.40234375
aF-9445.4541015625
aF-9554.505859375
aF-9998.1640625
aF-9558.1513671875
aF-9607.5244140625
aF-9686.447265625
aF-9653.015625
aF-9773.380859375
aF-9902.0966796875
aF-9766.3173828125
aF-9795.2275390625
aF-9964.76171875
aF-9813.5791015625
aF-9513.162109375
aF-9423.462890625
aF-9544.208984375
aF-9343.6708984375
aF-9434.75
aF-9377.298828125
aF-9541.701171875
aF-9687.04296875
aF-9808.1630859375
aF-9872.390625
aF-10011.427734375
aF-9908.1630859375
aF-9970.8193359375
aF-9787.158203125
aF-9760.509765625
aF-9988.7158203125
aF-10087.724609375
aF-10021.4248046875
aF-9754.38671875
aF-9600.873046875
aF-9967.3193359375
aF-9841.8095703125
aF-9749.955078125
aF-10024.75
aF-9948.6650390625
aF-9658.7939453125
aF-10119.26171875
aF-9791.34375
aF-9699.890625
aF-9364.5380859375
aF-9568.8955078125
aF-9477.2685546875
aF-9645.05078125
aF-9560.85546875
aF-9462.248046875
aF-10029.8408203125
aF-9528.1259765625
aF-9435.9892578125
aF-9656.2119140625
aF-9432.34375
aF-9417.142578125
aF-9376.2578125
aF-9580.90234375
aF-9672.681640625
aF-9439.0625
aF-9286.90625
aF-9687.5205078125
aF-9369.4521484375
aF-9592.9775390625
aF-9666.09375
aF-9581.943359375
aF-9560.55859375
aF-9556.8857421875
aF-9490.4931640625
aF-9584.1357421875
aF-9639.330078125
aF-9663.27734375
aF-9853.849609375
aF-9716.712890625
aF-9831.8544921875
aF-9395.529296875
aF-9383.81640625
aF-9473.546875
aF-9716.962890625
aF-9436.515625
aF-9734.5654296875
aF-9373.7998046875
aF-9625.2080078125
aF-9516.7451171875
aF-9634.0556640625
aF-9606.666015625
aF-9595.1025390625
aF-9364.8408203125
aF-9554.986328125
aF-9336.5859375
aF-9317.900390625
aF-9627.30078125
aF-9472.6181640625
aF-9421.19921875
aF-9258.9228515625
aF-9209.537109375
aF-9301.7998046875
aF-9329.9833984375
aF-9171.38671875
aF-9317.5576171875
aF-9199.0576171875
aF-9459.501953125
aF-9555.85546875
aF-9322.3515625
aF-9284.4599609375
aF-9368.82421875
aF-9212.0380859375
aF-9063.498046875
aF-9005.9365234375
aF-9063.2353515625
aF-9242.49609375
aF-9000.0517578125
aF-9164.09765625
aF-9199.11328125
aF-9099.49609375
aF-9115.966796875
aF-9196.6552734375
aF-9273.451171875
aF-8993.9970703125
aF-9182.8603515625
aF-8916.7255859375
aF-8985.802734375
aF-9104.8388671875
aF-9148.033203125
aF-9037.6796875
aF-8918.291015625
aF-9051.1591796875
aF-9239.9033203125
aF-8914.7216796875
aF-8912.7607421875
aF-8846.5361328125
aF-9209.759765625
aF-9100.388671875
aF-8944.2939453125
aF-8831.150390625
aF-8866.197265625
aF-8825.8115234375
aF-8609.09375
aF-9016.4091796875
aF-8928.4736328125
aF-8612.4384765625
aF-8926.4521484375
aF-8817.3642578125
aF-8904.169921875
aF-9019.3798828125
aF-8846.28125
aF-8778.6923828125
aF-8971.3115234375
aF-8743.330078125
aF-8931.205078125
aF-8875.1533203125
aF-8977.021484375
aF-8803.0908203125
aF-8762.0458984375
aF-9039.1640625
aF-8938.5126953125
aF-8918.8271484375
aF-8803.94921875
aF-8809.369140625
aF-8909.67578125
aF-8831.9921875
aF-9031.9072265625
aF-8923.943359375
aF-8994.5556640625
aF-8799.78515625
aF-8929.412109375
aF-8889.7158203125
aF-8784.0302734375
aF-8931.5947265625
aF-8939.4619140625
aF-8867.9384765625
aF-9027.3642578125
aF-8834.072265625
aF-8830.072265625
aF-8900.5166015625
aF-8772.7412109375
aF-9001.20703125
aF-8915.220703125
aF-8895.2060546875
aF-8825.490234375
aF-8840.9384765625
aF-8949.6796875
aF-8835.451171875
aF-8883.0146484375
aF-8910.5185546875
aF-8862.779296875
aF-8833.03125
aF-8879.8935546875
aF-8906.2890625
aF-8893.861328125
aF-8830.47265625
aF-8879.0478515625
aF-8942.955078125
aF-8884.44921875
aF-8959.3203125
aF-8875.0576171875
aF-8976.390625
aF-8901.34375
aF-8952.5869140625
aF-8903.7607421875
aF-8838.373046875
aF-8832.9619140625
aF-8816.365234375
aF-8800.037109375
aF-8812.6767578125
aF-8836.8251953125
aF-8824.5048828125
aF-8824.931640625
aF-9104.6748046875
aF-8785.318359375
aF-9252.1748046875
aF-8951.27734375
aF-9077.7109375
aF-9301.134765625
aF-9385.6357421875
aF-9126.59375
aF-9372.20703125
aF-9020.736328125
aF-9064.5703125
aF-9096.8408203125
aF-9031.2763671875
aF-9311.580078125
aF-9045.7392578125
aF-9364.6416015625
aF-9016.267578125
aF-9010.73828125
aF-9025.97265625
aF-9307.3232421875
aF-8993.3740234375
aF-9116.013671875
aF-8886.3544921875
aF-8903.1123046875
aF-8975.673828125
aF-8836.1298828125
aF-9125.6884765625
aF-9078.6748046875
aF-9164.443359375
aF-9053.916015625
aF-9193.8974609375
aF-9225.068359375
aF-9343.3916015625
aF-9086.814453125
aF-9113.2900390625
aF-9107.513671875
aF-9188.232421875
aF-9126.8310546875
aF-9052.3525390625
aF-9162.5224609375
aF-9151.2880859375
aF-9100.2763671875
aF-9069.849609375
aF-9125.8203125
aF-9247.751953125
aF-9057.578125
aF-9122.1728515625
aF-9084.291015625
aF-9142.5380859375
aF-9068.2890625
aF-9076.2060546875
aF-9188.349609375
aF-9082.822265625
aF-9113.9873046875
aF-9185.3466796875
aF-9234.373046875
aF-9261.7841796875
aF-9289.123046875
aF-9132.9287109375
aF-9112.2509765625
aF-9170.3388671875
aF-9239.876953125
aF-9135.4091796875
aF-9229.6171875
aF-9249.2685546875
aF-9232.6298828125
aF-9157.640625
aF-9121.7724609375
aF-9215.1328125
aF-9237.7470703125
aF-9200.615234375
aF-9138.30859375
aF-9160.1318359375
aF-9159.7587890625
aF-9086.333984375
aF-9071.5966796875
aF-9208.7255859375
aF-9058.58203125
aF-9143.7998046875
aF-9189.5966796875
aF-9072.4658203125
aF-9197.7822265625
aF-9021.546875
aF-9155.4189453125
aF-9205.130859375
aF-9148.65234375
aF-9209.5390625
aF-9112.705078125
aF-9110.279296875
aF-9136.5615234375
aF-9195.861328125
aF-9119.783203125
aF-9155.7060546875
aF-9192.8427734375
aF-9126.6962890625
aF-9121.4521484375
aF-9128.5869140625
aF-9147.1201171875
aF-9207.7548828125
aF-9204.3125
aF-9248.232421875
aF-9152.185546875
aF-9212.80078125
aF-9173.240234375
aF-9213.443359375
aF-9184.7626953125
aF-9175.7919921875
aF-9208.912109375
aF-9215.9150390625
aF-9195.30859375
aF-9169.5966796875
aF-9198.826171875
aF-9171.0791015625
aF-9216.734375
aF-9222.8203125
aF-9187.1005859375
aF-9146.6357421875
aF-9197.5068359375
aF-9145.880859375
aF-9204.2607421875
aF-9152.3212890625
aF-9159.6474609375
aF-9260.005859375
aF-9201.2080078125
aF-9164.47265625
aF-9264.16015625
aF-9206.12890625
aF-9171.71484375
aF-9220.830078125
aF-9169.935546875
aF-9212.6376953125
aF-9170.88671875
aF-9161.3623046875
aF-9205.107421875
aF-9257.2177734375
aF-9179.8544921875
aF-9170.09375
aF-9208.228515625
aF-9221.8388671875
aF-9161.609375
aF-9199.51953125
aF-9235.74609375
aF-9161.9853515625
aF-9113.29296875
aF-9200.873046875
aF-9224.3701171875
aF-9137.935546875
aF-9150.76953125
aF-9196.7578125
aF-9243.9619140625
aF-9140.4287109375
aF-9150.7978515625
aF-9207.390625
aF-9275.6513671875
aF-9150.3583984375
aF-9159.6083984375
aF-9206.5419921875
aF-9210.3193359375
aF-9144.5654296875
aF-9161.1748046875
aF-9202.8798828125
aF-9225.162109375
aF-9149.61328125
aF-9202.525390625
aF-9155.6640625
aF-9227.7119140625
aF-9154.169921875
aF-9208.009765625
aF-9231.71484375
aF-9142.7978515625
aF-9144.3232421875
aF-9166.2197265625
aF-9227.708984375
aF-9153.115234375
aF-9154.7314453125
aF-9202.5185546875
aF-9228.31640625
aF-9144.5166015625
aF-9143.8974609375
aF-9189.3544921875
aF-9186.546875
aF-9146.4228515625
aF-9140.373046875
aF-9196.6279296875
aF-9207.9345703125
aF-9145.4638671875
aF-9150.677734375
aF-9197.03515625
aF-9232.830078125
aF-9146.1220703125
aF-9158.2978515625
aF-9259.607421875
aF-9220.62890625
aF-9184.837890625
aF-9160.1611328125
aF-9189.5439453125
aF-9199.2216796875
aF-9192.9326171875
aF-9168.32421875
aF-9209.4755859375
aF-9221.876953125
aF-9163.8740234375
aF-9155.2158203125
aF-9218.0625
aF-9157.01171875
aF-9205.9140625
aF-9103.5595703125
aF-9206.83203125
aF-9168.8837890625
aF-9185.5751953125
aF-9161.5712890625
aF-9247.14453125
aF-9145.6884765625
aF-9168.20703125
aF-9209.1259765625
aF-9155.1171875
aF-9157.458984375
aF-9222.0322265625
aF-9206.0654296875
aF-9201.6767578125
aF-9170.8134765625
aF-9197.2392578125
aF-9178.4775390625
aF-9205.5341796875
aF-9211.8310546875
aF-9217.392578125
aF-9187.0595703125
aF-9155.2451171875
aF-9221.4501953125
aF-9164.517578125
aF-9180.0947265625
aF-9195.560546875
aF-9228.265625
aF-9148.9521484375
aF-9202.861328125
aF-9206.90234375
aF-9090.345703125
aF-9211.9912109375
aF-9180.0693359375
aF-9149.857421875
aF-9173.8037109375
aF-9211.1201171875
aF-9182.5205078125
aF-9212.57421875
aF-9339.984375
aF-9227.66796875
aF-9238.0986328125
aF-9245.1494140625
aF-9282.26953125
aF-9236.2158203125
aF-9205.0087890625
aF-9252.80859375
aF-9287.0771484375
aF-9244.10546875
aF-9259.8349609375
aF-9257.955078125
aF-9243.1005859375
aF-9184.8349609375
aF-9264.94140625
aF-9201.111328125
aF-9203.734375
aF-9251.275390625
aF-9223.58984375
aF-9199.4453125
aF-9255.5693359375
aF-9204.5283203125
aF-9269.2880859375
aF-9205.4521484375
aF-9201.369140625
aF-9253.0185546875
aF-9233.2890625
aF-9254.4501953125
aF-9181.8173828125
aF-9242.740234375
aF-9311.392578125
aF-9370.978515625
aF-9242.5498046875
aF-9261.7783203125
aF-9214.7490234375
aF-9272.216796875
aF-9217.439453125
aF-9234.251953125
aF-9210.525390625
aF-9246.3544921875
aF-9242.9111328125
aF-9216.533203125
aF-9208.8896484375
aF-9251.9912109375
aF-9227.48046875
aF-9212.3974609375
aF-9287.79296875
aF-9242.9775390625
aF-9187.4208984375
aF-9216.984375
aF-9237.505859375
aF-9293.7294921875
aF-9142.83984375
aF-9212.48046875
aF-9265.5322265625
aF-9182.3994140625
aF-9196.1904296875
aF-9261.5205078125
aF-9259.6455078125
aF-9201.18359375
aF-9338.265625
aF-9358.5615234375
aF-9211.7119140625
aF-9204.435546875
aF-9269.4677734375
aF-9251.4609375
aF-9303.9853515625
aF-9240.1279296875
aF-9250.44921875
aF-9232.49609375
aF-9256.27734375
aF-9242.3349609375
aF-9237.65234375
aF-9247.5849609375
aF-9224.955078125
aF-9251.951171875
aF-9223.5595703125
aF-9275.580078125
aF-9243.962890625
aF-9243.3427734375
aF-9237.1025390625
aF-9260.5693359375
aF-9258.775390625
aF-9209.3447265625
aF-9231.06640625
aF-9249.990234375
aF-9278.71484375
aF-9230.205078125
aF-9241.576171875
aF-9278.474609375
aF-9309.994140625
aF-9332.9755859375
aF-9395.994140625
aF-9338.0107421875
aF-9174.041015625
aF-9217.62890625
aF-9272.6767578125
aF-9285.140625
aF-9176.2109375
aF-9197.13671875
aF-9252.921875
aF-9254.1630859375
aF-9204.376953125
aF-9193.087890625
aF-9218.0185546875
aF-9257.666015625
aF-9192.8583984375
aF-9196.3857421875
aF-9250.5283203125
aF-9249.2158203125
aF-9203.5283203125
aF-9222.8671875
aF-9249.64453125
aF-9243.7685546875
aF-9168.5029296875
aF-9201.33203125
aF-9252.748046875
aF-9332.08203125
aF-9238.962890625
aF-9200.3095703125
aF-9252.07421875
aF-9244.658203125
aF-9258.94921875
aF-9362.43359375
aF-9238.9775390625
aF-9376.0009765625
aF-9319.916015625
aF-9331.9140625
aF-9310.935546875
aF-9284.357421875
aF-9411.67578125
aF-9318.15234375
aF-9335.83984375
aF-9291.3603515625
aF-9289.291015625
aF-9341.9189453125
aF-9348.6796875
aF-9180.806640625
aF-9289.71875
aF-9349.283203125
aF-9365.810546875
aF-9245.8798828125
aF-9320.376953125
aF-9253.6650390625
aF-9326.763671875
aF-9385.841796875
aF-9357.1279296875
aF-9323.5400390625
aF-9390.033203125
aF-9335.9453125
aF-9337.2265625
aF-9291.9921875
aF-9296.576171875
aF-9361.216796875
aF-9317.77734375
aF-9333.1796875
aF-9313.1533203125
aF-9283.267578125
aF-9361.8046875
aF-9224.8037109375
aF-9202.9130859375
aF-9259.109375
aF-9196.875
aF-9229.88671875
aF-9222.5830078125
aF-9272.7138671875
aF-9200.5498046875
aF-9215.89453125
aF-9234.56640625
aF-9252.03125
aF-9255.384765625
aF-9203.4814453125
aF-9188.0693359375
aF-9263.95703125
aF-9236.1103515625
aF-9227.80859375
aF-9181.2138671875
aF-9256.8955078125
aF-9228.6064453125
aF-9186.798828125
aF-9191.3818359375
aF-9250.4404296875
aF-9254.3037109375
aF-9134.736328125
aF-9191.1064453125
aF-9274.5634765625
aF-9241.69140625
aF-9254.205078125
aF-9218.400390625
aF-9327.15234375
aF-9293.2236328125
aF-9406.07421875
aF-9278.083984375
aF-9198.3291015625
aF-9269
aF-9214.4521484375
aF-9244.95703125
aF-9291.94140625
aF-9255.0234375
aF-9212.0966796875
aF-9211.2421875
aF-9253.708984375
aF-9247.517578125
aF-9230.5859375
aF-9142.65625
aF-9180.166015625
aF-9263.455078125
aF-9191.14453125
aF-9231.91796875
aF-9221.0390625
aF-9234.33984375
aF-9170.908203125
aF-9191.48046875
aF-9185.421875
aF-9143.0673828125
aF-9155.189453125
aF-9291.7109375
aF-9287.9833984375
aF-9253.1484375
aF-9256.234375
aF-9294.708984375
aF-9284.900390625
aF-9213.837890625
aF-9249.2978515625
aF-9252.8447265625
aF-9250.208984375
aF-9189.8115234375
aF-9237.005859375
aF-9297.9951171875
aF-9267.8994140625
aF-9238.978515625
aF-9238.376953125
aF-9236.3193359375
aF-9244.5849609375
aF-9268.861328125
aF-9269.7705078125
aF-9280.9931640625
aF-9274.583984375
aF-9278.9111328125
aF-9226.4609375
aF-9288.462890625
aF-9285.9375
aF-9231.916015625
aF-9202.0205078125
aF-9231.4052734375
aF-9223.1396484375
aF-9208.9443359375
aF-9233.759765625
aF-9231.4052734375
aF-9230.5302734375
aF-9232.08984375
aF-9223.283203125
aF-9268.9833984375
aF-9291.0224609375
aF-9234.65234375
aF-9284.666015625
aF-9239.0849609375
aF-9267.044921875
aF-9237.2822265625
aF-9238.03515625
aF-9283.0947265625
aF-9238.244140625
aF-9231.916015625
aF-9282.845703125
aF-9282.99609375
aF-9227.6884765625
aF-9240.64453125
aF-9281.00390625
aF-9281.00390625
aF-9228.4033203125
aF-9236.05859375
aF-9283.73828125
aF-9289.21484375
aF-9234.36328125
aF-9235.10546875
aF-9283.73828125
aF-9283.73828125
aF-9283.73828125
aF-9232.83203125
aF-9232.08984375
aF-9282.99609375
aF-9232.08984375
aF-9282.99609375
aF-9232.08984375
aF-9282.99609375
aF-9282.99609375
aF-9223.3017578125
aF-9232.11328125
aF-9282.99609375
aF-9282.99609375
aF-9282.99609375
aF-9232.08984375
aF-9232.83203125
aF-9283.73828125
aF-9279.654296875
aF-9283.73828125
aF-9232.83203125
aF-9231.6923828125
aF-9232.08984375
aF-9282.99609375
aF-9282.99609375
aF-9232.08984375
aF-9282.99609375
aF-9232.08984375
aF-9282.99609375
aF-9282.99609375
aF-9281.5439453125
aF-9232.08984375
aF-9232.08984375
aF-9227.6884765625
aF-9232.08984375
aF-9232.08984375
aF-9232.08984375
aF-9232.08984375
aF-9232.08984375
aF-9232.08984375
aF-9239.90234375
aF-9231.173828125
aF-9232.08984375
aF-9231.173828125
aF-9232.08984375
aF-9231.173828125
aF-9232.22265625
aF-9231.173828125
aF-9232.08984375
aF-9231.173828125
aF-9232.08984375
aF-9231.173828125
aF-9234.88671875
aF-9231.173828125
aF-9232.08984375
aF-9233.970703125
aF-9232.08984375
aF-9226.7724609375
aF-9237.09375
aF-9231.173828125
aF-9234.296875
aF-9233.970703125
aF-9234.296875
aF-9231.173828125
aF-9234.296875
aF-9233.970703125
aF-9237.09375
aF-9233.970703125
aF-9237.09375
aF-9231.173828125
aF-9234.296875
aF-9233.970703125
aF-9234.296875
aF-9231.173828125
aF-9234.296875
aF-9233.380859375
aF-9232.08984375
aF-9233.380859375
aF-9232.08984375
aF-9233.380859375
aF-9232.08984375
aF-9233.380859375
aF-9232.08984375
aF-9261.130859375
aF-9264.5380859375
aF-9264.0849609375
aF-9309.69140625
aF-9262.5361328125
aF-9276.8310546875
aF-9232.0068359375
aF-9285.7080078125
aF-9282.9130859375
aF-9232.0068359375
aF-9232.0068359375
aF-9285.7080078125
aF-9285.7080078125
aF-9235.5439453125
aF-9285.7080078125
aF-9286.4501953125
aF-9234.8017578125
aF-9285.7080078125
aF-9285.7080078125
aF-9286.4501953125
aF-9286.4501953125
aF-9285.7080078125
aF-9285.7080078125
aF-9287.2548828125
aF-9286.4501953125
aF-9285.7080078125
aF-9285.7080078125
aF-9286.4501953125
aF-9282.048828125
aF-9285.7080078125
aF-9285.7080078125
aF-9286.4501953125
aF-9286.4501953125
aF-9285.7080078125
aF-9285.7080078125
aF-9260.6513671875
aF-9286.4501953125
aF-9286.4501953125
aF-9285.7080078125
aF-9285.7080078125
aF-9260.6513671875
aF-9259.9091796875
aF-9260.6513671875
aF-9259.9091796875
aF-9260.6513671875
aF-9260.6513671875
aF-9260.6513671875
aF-9259.9091796875
aF-9259.9091796875
aF-9259.9091796875
aF-9259.9091796875
aF-9259.9091796875
aF-9259.9091796875
aF-9259.9091796875
aF-9255.5068359375
aF-9259.9091796875
aF-9259.9091796875
aF-9259.9091796875
aF-9259.9091796875
aF-9259.9091796875
aF-9259.9091796875
aF-9259.9091796875
aF-9259.9091796875
aF-9259.9091796875
aF-9259.9091796875
aF-9260.8251953125
aF-9259.9091796875
aF-9259.9091796875
aF-9260.8251953125
aF-9260.8251953125
aF-9259.9091796875
aF-9259.9091796875
aF-9260.8251953125
aF-9260.8251953125
aF-9259.9091796875
aF-9259.9091796875
aF-9260.8251953125
aF-9260.8251953125
aF-9259.9091796875
aF-9259.9091796875
aF-9260.8251953125
aF-9256.4228515625
aF-9259.9091796875
aF-9259.9091796875
aF-9260.8251953125
aF-9259.9091796875
aF-9260.8251953125
aF-9259.9091796875
aF-9259.9091796875
aF-9260.8251953125
aF-9260.8251953125
aF-9259.9091796875
aF-9259.9091796875
aF-9260.8251953125
aF-9260.8251953125
aF-9259.9091796875
aF-9259.9091796875
aF-9260.8251953125
aF-9260.8251953125
aF-9259.9091796875
aF-9259.9091796875
aF-9259.9091796875
aF-9260.8251953125
aF-9260.8251953125
aF-9259.9091796875
aF-9260.8251953125
aF-9259.9091796875
aF-9260.8251953125
aF-9259.9091796875
aF-9259.9091796875
aF-9260.8251953125
aF-9260.8251953125
aF-9255.5068359375
aF-9259.9091796875
aF-9260.8251953125
aF-9259.9091796875
aF-9260.8251953125
aF-9259.9091796875
aF-9259.9091796875
aF-9260.8251953125
aF-9260.8251953125
aF-9259.9091796875
aF-9259.9091796875
aF-9259.9091796875
aF-9260.8251953125
aF-9260.8251953125
aF-9259.9091796875
aF-9259.9091796875
aF-9259.9091796875
aF-9260.8251953125
aF-9260.8251953125
aF-9259.9091796875
aF-9259.9091796875
aF-9260.8251953125
aF-9259.9091796875
aF-9260.8251953125
aF-9259.9091796875
aF-9259.9091796875
aF-9259.9091796875
aF-9260.8251953125
aF-9259.9091796875
aF-9260.8251953125
aF-9255.5068359375
aF-9259.9091796875
aF-9259.9091796875
aF-9260.8251953125
aF-9259.9091796875
aF-9259.9091796875
aF-9260.8251953125
aF-9259.9091796875
aF-9259.9091796875
aF-9259.9091796875
aF-9259.9091796875
aF-9260.8251953125
aF-9260.8251953125
aF-9260.8251953125
aF-9260.8251953125
aF-9260.8251953125
aF-9260.8251953125
aF-9260.8251953125
aF-9260.8251953125
aF-9260.8251953125
aF-9260.8251953125
aF-9260.8251953125
aF-9260.8251953125
aF-9260.8251953125
aF-9260.8251953125
aF-9260.8251953125
aF-9260.8251953125
aF-9260.8251953125
aF-9260.8251953125
aF-9260.8251953125
aF-9260.8251953125
aF-9256.4228515625
aF-9260.8251953125
aF-9260.8251953125
aF-9260.8251953125
aF-9260.8251953125
aF-9260.8251953125
aF-9260.8251953125
aF-9260.8251953125
aF-9260.8251953125
aF-9260.8251953125
aF-9260.8251953125
aF-9260.8251953125
aF-9260.8251953125
aF-9260.8251953125
aF-9260.8251953125
aF-9260.8251953125
aF-9260.8251953125
aF-9260.8251953125
aF-9260.8251953125
aF-9260.8251953125
aF-9260.8251953125
aF-9260.8251953125
aF-9260.8251953125
aF-9260.8251953125
aF-9260.8251953125
aF-9260.8251953125
aF-9260.8251953125
aF-9260.8251953125
aF-9260.8251953125
aF-9260.8251953125
aF-9260.8251953125
aF-9260.8251953125
aF-9256.4228515625
aF-9260.8251953125
aF-9260.8251953125
aF-9260.8251953125
aF-9260.8251953125
aF-9260.8251953125
aF-9260.8251953125
aF-9260.8251953125
aF-9260.8251953125
aF-9260.8251953125
aF-9260.8251953125
aF-9260.8251953125
aF-9260.8251953125
aF-9260.8251953125
aF-9260.8251953125
aF-9260.8251953125
aF-9260.8251953125
aF-9260.8251953125
aF-9260.8251953125
aF-9260.8251953125
aF-9260.8251953125
aF-9260.8251953125
aF-9260.8251953125
aF-9260.8251953125
aF-9260.8251953125
aF-9260.8251953125
aF-9260.8251953125
aF-9260.8251953125
aF-9260.8251953125
aF-9260.8251953125
aF-9260.8251953125
aF-9260.8251953125
aF-9260.8251953125
aF-9256.4228515625
aF-9260.8251953125
aF-9260.8251953125
aF-9260.8251953125
aF-9260.8251953125
aF-9260.8251953125
aF-9260.8251953125
aF-9260.8251953125
aF-9260.8251953125
aF-9260.8251953125
aF-9260.8251953125
aF-9260.8251953125
aF-9260.8251953125
aF-9260.8251953125
aF-9260.8251953125
aF-9260.8251953125
aF-9260.8251953125
aF-9260.8251953125
aF-9260.8251953125
aF-9260.8251953125
aF-9260.8251953125
aF-9260.8251953125
aF-9260.8251953125
aF-9260.8251953125
aF-9260.8251953125
aF-9260.8251953125
aF-9260.8251953125
aF-9260.8251953125
aF-9260.8251953125
aF-9260.8251953125
aF-9260.8251953125
aF-9260.8251953125
aF-9260.8251953125
aF-9256.4228515625
aF-9260.8251953125
aF-9260.8251953125
aF-9260.8251953125
aF-9260.8251953125
aF-9260.8251953125
aF-9260.8251953125
aF-9260.8251953125
aF-9260.8251953125
aF-9260.8251953125
aF-9260.8251953125
aF-9260.8251953125
aF-9260.8251953125
aF-9260.8251953125
aF-9260.8251953125
aF-9260.8251953125
aF-9260.8251953125
aF-9260.8251953125
aF-9260.8251953125
aF-9260.8251953125
aF-9260.8251953125
aF-9260.8251953125
aF-9260.8251953125
aF-9260.8251953125
aF-9260.8251953125
aF-9260.8251953125
aF-9260.8251953125
aF-9260.8251953125
aF-9260.8251953125
aF-9260.8251953125
aF-9260.8251953125
aF-9260.8251953125
aF-9260.8251953125
aF-9260.8251953125
aF-9260.8251953125
aF-9260.8251953125
aF-9260.8251953125
aF-9260.8251953125
aF-9260.8251953125
aF-9260.8251953125
aF-9256.4228515625
aF-9260.8251953125
aF-9260.8251953125
aF-9260.8251953125
aF-9260.8251953125
aF-9260.8251953125
aF-9260.8251953125
aF-9260.8251953125
aF-9260.8251953125
aF-9260.8251953125
aF-9260.8251953125
aF-9260.8251953125
aF-9260.8251953125
aF-9260.8251953125
aF-9260.8251953125
aF-9260.8251953125
aF-9260.8251953125
aF-9260.8251953125
aF-9260.8251953125
aF-9260.8251953125
aF-9260.8251953125
aF-9260.8251953125
aF-9260.8251953125
aF-9260.8251953125
aF-9260.8251953125
aF-9260.8251953125
aF-9260.8251953125
aF-9260.8251953125
aF-9260.8251953125
aF-9260.8251953125
aF-9260.8251953125
aF-9260.8251953125
aF-9260.8251953125
aF-9260.8251953125
aF-9260.8251953125
aF-9260.8251953125
aF-9260.8251953125
aF-9256.4228515625
aF-9260.8251953125
aF-9260.8251953125
aF-9260.8251953125
aF-9260.8251953125
aF-9260.8251953125
aF-9260.8251953125
aF-9260.8251953125
aF-9260.8251953125
aF-9260.8251953125
aF-9260.8251953125
aF-9260.8251953125
aF-9260.8251953125
aF-9260.8251953125
aF-9260.8251953125
aF-9260.8251953125
aF-9260.8251953125
aF-9260.8251953125
aF-9260.8251953125
aF-9260.8251953125
aF-9260.8251953125
aF-9260.8251953125
aF-9260.8251953125
aF-9260.8251953125
aF-9260.8251953125
aF-9260.8251953125
aF-9260.8251953125
aF-9260.8251953125
aF-9260.8251953125
aF-9260.8251953125
aF-9260.8251953125
aF-9260.8251953125
aF-9260.8251953125
aF-9260.8251953125
aF-9260.8251953125
aF-9260.8251953125
aF-9260.8251953125
aF-9260.8251953125
aF-9256.4228515625
aF-9260.8251953125
aF-9260.8251953125
aF-9260.8251953125
aF-9260.8251953125
aF-9260.8251953125
aF-9260.8251953125
aF-9260.8251953125
aF-9260.8251953125
aF-9260.8251953125
aF-9260.8251953125
aF-9260.8251953125
aF-9260.8251953125
aF-9260.8251953125
aF-9260.8251953125
aF-9260.8251953125
aF-9260.8251953125
aF-9260.8251953125
aF-9260.8251953125
aF-9260.8251953125
aF-9260.8251953125
aF-9260.8251953125
aF-9260.8251953125
aF-9260.8251953125
aF-9260.8251953125
aF-9260.8251953125
aF-9260.8251953125
aF-9260.8251953125
aF-9260.8251953125
aF-9260.8251953125
aF-9260.8251953125
aF-9260.8251953125
aF-9260.8251953125
aF-9260.8251953125
aF-9260.8251953125
aF-9260.8251953125
aF-9260.8251953125
aF-9260.8251953125
aF-9260.8251953125
aF-9256.4228515625
aF-9260.8251953125
aF-9260.8251953125
aF-9260.8251953125
aF-9260.8251953125
aF-9260.8251953125
aF-9260.8251953125
aF-9260.8251953125
aF-9260.8251953125
aF-9260.8251953125
aF-9260.8251953125
aF-9260.8251953125
aF-9260.8251953125
aF-9260.8251953125
aF-9260.8251953125
aF-9260.8251953125
aF-9260.8251953125
aF-9260.8251953125
aF-9260.8251953125
aF-9260.8251953125
aF-9260.8251953125
aF-9260.8251953125
aF-9260.8251953125
aF-9260.8251953125
aF-9260.8251953125
aF-9260.8251953125
aF-9260.8251953125
aF-9260.8251953125
aF-9260.8251953125
aF-9260.8251953125
aF-9260.8251953125
aF-9260.8251953125
aF-9260.8251953125
aF-9260.8251953125
aF-9260.8251953125
aF-9260.8251953125
aF-9260.8251953125
aF-9260.8251953125
aF-9260.8251953125
aF-9260.8251953125
aF-9256.4228515625
aF-9260.8251953125
aF-9260.8251953125
aF-9260.8251953125
aF-9260.8251953125
aF-9260.8251953125
a.